------- FILE unittest.asm LEVEL 1 PASS 1
      1  0000					      processor	6502
      2  0000 ????
      3  0000 ????						;
      4  0000 ????						; 6 5 0 2   F U N C T I O N A L   T E S T
      5  0000 ????						;
      6  0000 ????						; Copyright (C) 2012-2020  Klaus Dormann
      7  0000 ????						;
      8  0000 ????						; This program is free software: you can redistribute it and/or modify
      9  0000 ????						; it under the terms of the GNU General Public License as published by
     10  0000 ????						; the Free Software Foundation, either version 3 of the License, or
     11  0000 ????						; (at your option) any later version.
     12  0000 ????						;
     13  0000 ????						; This program is distributed in the hope that it will be useful,
     14  0000 ????						; but WITHOUT ANY WARRANTY; without even the implied warranty of
     15  0000 ????						; MERCHANTABILITY or FITNESS FOR A PARTICULAR PURPOSE.  See the
     16  0000 ????						; GNU General Public License for more details.
     17  0000 ????						;
     18  0000 ????						; You should have received a copy of the GNU General Public License
     19  0000 ????						; along with this program.  If not, see <http://www.gnu.org/licenses/>.
     20  0000 ????
     21  0000 ????
     22  0000 ????						; This program is designed to test all opcodes of a 6502 emulator using all
     23  0000 ????						; addressing modes with focus on propper setting of the processor status
     24  0000 ????						; register bits.
     25  0000 ????						;
     26  0000 ????						; version 05-jan-2020
     27  0000 ????						; contact info at http://2m5.de or email K@2m5.de
     28  0000 ????						;
     29  0000 ????						; assembled with AS65 written by Frank A. Kingswood
     30  0000 ????						; The assembler as65_142.zip can be obtained from my GitHub repository
     31  0000 ????						; command line switches: -l -m -s2 -w -h0
     32  0000 ????						;			   |  |  |   |	no page headers in listing
     33  0000 ????						;			   |  |  |   wide listing (133 char/col)
     34  0000 ????						;			   |  |  write intel hex file instead of binary
     35  0000 ????						;			   |  expand macros in listing
     36  0000 ????						;			   generate pass2 listing
     37  0000 ????						;
     38  0000 ????						; No IO - should be run from a monitor with access to registers.
     39  0000 ????						; To run load intel hex image with a load command, than alter PC to 400 hex
     40  0000 ????						; (code_segment) and enter a go command.
     41  0000 ????						; Loop on program counter determines error or successful completion of test.
     42  0000 ????						; Check listing for relevant traps (jump/branch *).
     43  0000 ????						; Please note that in early tests some instructions will have to be used before
     44  0000 ????						; they are actually tested!
     45  0000 ????						;
     46  0000 ????						; RESET, NMI or IRQ should not occur and will be trapped if vectors are enabled.
     47  0000 ????						; Tests documented behavior of the original NMOS 6502 only! No unofficial
     48  0000 ????						; opcodes. Additional opcodes of newer versions of the CPU (65C02, 65816) will
     49  0000 ????						; not be tested. Decimal ops will only be tested with valid BCD operands and
     50  0000 ????						; N V Z flags will be ignored.
     51  0000 ????						;
     52  0000 ????						; Debugging hints:
     53  0000 ????						;     Most of the code is written sequentially. if you hit a trap, check the
     54  0000 ????						;   immediately preceeding code for the instruction to be tested. Results are
     55  0000 ????						;   tested first, flags are checked second by pushing them onto the stack and
     56  0000 ????						;   pulling them to the accumulator after the result was checked. The "real"
     57  0000 ????						;   flags are no longer valid for the tested instruction at this time!
     58  0000 ????						;     If the tested instruction was indexed, the relevant index (X or Y) must
     59  0000 ????						;   also be checked. Opposed to the flags, X and Y registers are still valid.
     60  0000 ????						;
     61  0000 ????						; versions:
     62  0000 ????						;   28-jul-2012  1st version distributed for testing
     63  0000 ????						;   29-jul-2012  fixed references to location 0, now #0
     64  0000 ????						;		  added license - GPLv3
     65  0000 ????						;   30-jul-2012  added configuration options
     66  0000 ????						;   01-aug-2012  added trap macro to allow user to change error handling
     67  0000 ????						;   01-dec-2012  fixed trap in branch field must be a branch
     68  0000 ????						;   02-mar-2013  fixed PLA flags not tested
     69  0000 ????						;   19-jul-2013  allowed ROM vectors to be loaded when load_data_direct = 0
     70  0000 ????						;		  added test sequence check to detect if tests jump their fence
     71  0000 ????						;   23-jul-2013  added RAM integrity check option
     72  0000 ????						;   16-aug-2013  added error report to standard output option
     73  0000 ????						;   13-dec-2014  added binary/decimal opcode table switch test
     74  0000 ????						;   14-dec-2014  improved relative address test
     75  0000 ????						;   23-aug-2015  added option to disable self modifying tests
     76  0000 ????						;   24-aug-2015  all self modifying immediate opcodes now execute in data RAM
     77  0000 ????						;		  added small branch offset pretest
     78  0000 ????						;   21-oct-2015  added option to disable decimal mode ADC & SBC tests
     79  0000 ????						;   04-dec-2017  fixed BRK only tested with interrupts enabled
     80  0000 ????						;		  added option to skip the remainder of a failing test
     81  0000 ????						;		  in report.i65
     82  0000 ????						;   05-jan-2020  fixed shifts not testing zero result and flag when last 1-bit
     83  0000 ????						;		  is shifted out
     84  0000 ????
     85  0000 ????						; C O N F I G U R A T I O N
     86  0000 ????
     87  0000 ????						;
     88  0000 ????						;   Need to define some macros for the dasm assembler
     89  0000 ????						;
     90  0000 ????				      MACRO	dw
     91  0000 ????				      .word	{0}
     92  0000 ????				      ENDM
     93  0000 ????
     94  0000 ????				      MACRO	db
     95  0000 ????				      .byte	{0}
     96  0000 ????				      ENDM
     97  0000 ????
     98  0000 ????						;
     99  0000 ????
    100  0000 ????						;ROM_vectors writable (0=no, 1=yes)
    101  0000 ????						;if ROM vectors can not be used interrupts will not be trapped
    102  0000 ????						;as a consequence BRK can not be tested but will be emulated to test RTI
    103  0000 ????	       00 00	   ROM_vectors equ	0
    104  0000 ????
    105  0000 ????						;load_data_direct (0=move from code segment, 1=load directly)
    106  0000 ????						;loading directly is preferred but may not be supported by your platform
    107  0000 ????						;0 produces only consecutive object code, 1 is not suitable for a binary image
    108  0000 ????	       00 00	   load_data_direct equ	0
    109  0000 ????
    110  0000 ????						;I_flag behavior (0=force enabled, 1=force disabled, 2=prohibit change, 3=allow
    111  0000 ????						;change) 2 requires extra code and is not recommended. SEI & CLI can only be
    112  0000 ????						;tested if you allow changing the interrupt status (I_flag = 3)
    113  0000 ????	       00 01	   I_flag     equ	1
    114  0000 ????
    115  0000 ????						;configure memory - try to stay away from memory used by the system
    116  0000 ????						;zero_page memory start address, $52 (82) consecutive Bytes required
    117  0000 ????						;				  add 2 if I_flag = 2
    118  0000 ????	       00 40	   zero_page  equ	$40
    119  0000 ????
    120  0000 ????						;data_segment memory start address, $7B (123) consecutive Bytes required
    121  0000 ????	       02 00	   data_segment equ	$200
    122  0000 ????			  -	      if	(data_segment & $ff) != 0
    123  0000 ????			  -	      ERROR	ERROR ERROR low byte of data_segment MUST be $00 !!
    124  0000 ????				      endif
    125  0000 ????
    126  0000 ????						;code_segment memory start address, 13.1kB of consecutive space required
    127  0000 ????						;				     add 2.5 kB if I_flag = 2
    128  0000 ????	       04 00	   code_segment equ	$400
    129  0000 ????
    130  0000 ????						;self modifying code may be disabled to allow running in ROM
    131  0000 ????						;0=part of the code is self modifying and must reside in RAM
    132  0000 ????						;1=tests disabled: branch range
    133  0000 ????	       00 00	   disable_selfmod equ	0
    134  0000 ????
    135  0000 ????						;report errors through I/O channel (0=use standard self trap loops, 1=include
    136  0000 ????						;report.i65 as I/O channel, add 3.5 kB)
    137  0000 ????	       00 00	   report     equ	0
    138  0000 ????
    139  0000 ????						;RAM integrity test option. Checks for undesired RAM writes.
    140  0000 ????						;set lowest non RAM or RAM mirror address page (-1=disable, 0=64k, $40=16k)
    141  0000 ????						;leave disabled if a monitor, OS or background interrupt is allowed to alter RAM
    142  0000 ????	       ff ff ff ff ram_top    equ	-1
    143  0000 ????
    144  0000 ????						;disable test decimal mode ADC & SBC, 0=enable, 1=disable,
    145  0000 ????						;2=disable including decimal flag in processor status
    146  0000 ????	       00 00	   disable_decimal equ	0
    147  0000 ????
    148  0000 ????						;	  noopt       ;do not take shortcuts
    149  0000 ????
    150  0000 ????						;macros for error & success traps to allow user modification
    151  0000 ????						;example:
    152  0000 ????						;trap	  macro
    153  0000 ????						;	  jsr my_error_handler
    154  0000 ????						;	  endm
    155  0000 ????						;trap_eq macro
    156  0000 ????						;	  bne skip{?}
    157  0000 ????						;	  trap		 ;failed equal (zero)
    158  0000 ????						;skip{?}
    159  0000 ????						;	  endm
    160  0000 ????						;
    161  0000 ????						; my_error_handler should pop the calling address from the stack and report it.
    162  0000 ????						; putting larger portions of code (more than 3 bytes) inside the trap macro
    163  0000 ????						; may lead to branch range problems for some tests.
    164  0000 ????				      if	report = 0
    165  0000 ????			   trap       macro
    166  0000 ????				      jmp	*	;failed anyway
    167  0000 ????				      endm
    168  0000 ????			   trap_eq    macro
    169  0000 ????				      beq	*	;failed equal (zero)
    170  0000 ????				      endm
    171  0000 ????			   trap_ne    macro
    172  0000 ????				      bne	*	;failed not equal (non zero)
    173  0000 ????				      endm
    174  0000 ????			   trap_cs    macro
    175  0000 ????				      bcs	*	;failed carry set
    176  0000 ????				      endm
    177  0000 ????			   trap_cc    macro
    178  0000 ????				      bcc	*	;failed carry clear
    179  0000 ????				      endm
    180  0000 ????			   trap_mi    macro
    181  0000 ????				      bmi	*	;failed minus (bit 7 set)
    182  0000 ????				      endm
    183  0000 ????			   trap_pl    macro
    184  0000 ????				      bpl	*	;failed plus (bit 7 clear)
    185  0000 ????				      endm
    186  0000 ????			   trap_vs    macro
    187  0000 ????				      bvs	*	;failed overflow set
    188  0000 ????				      endm
    189  0000 ????			   trap_vc    macro
    190  0000 ????				      bvc	*	;failed overflow clear
    191  0000 ????				      endm
    192  0000 ????						; please observe that during the test the stack gets invalidated
    193  0000 ????						; therefore a RTS inside the success macro is not possible
    194  0000 ????			   success    macro
    195  0000 ????				      jmp	*	;test passed, no errors
    196  0000 ????				      endm
    197  0000 ????				      endif
    198  0000 ????			  -	      if	report = 1
    201  0000 ????			  -	      endm
    206  0000 ????			  -	      endm
    211  0000 ????			  -	      endm
    216  0000 ????			  -	      endm
    221  0000 ????			  -	      endm
    226  0000 ????			  -	      endm
    231  0000 ????			  -	      endm
    236  0000 ????			  -	      endm
    241  0000 ????			  -	      endm
    242  0000 ????			  -			; please observe that during the test the stack gets invalidated
    243  0000 ????			  -			; therefore a RTS inside the success macro is not possible
    246  0000 ????			  -	      endm
    247  0000 ????				      endif
    248  0000 ????
    249  0000 ????
    250  0000 ????	       00 01	   carry      equ	%00000001	;flag bits in status
    251  0000 ????	       00 02	   zero       equ	%00000010
    252  0000 ????	       00 04	   intdis     equ	%00000100
    253  0000 ????	       00 08	   decmode    equ	%00001000
    254  0000 ????	       00 10	   break      equ	%00010000
    255  0000 ????	       00 20	   reserv     equ	%00100000
    256  0000 ????	       00 40	   overfl     equ	%01000000
    257  0000 ????	       00 80	   minus      equ	%10000000
    258  0000 ????
    259  0000 ????	       00 01	   fc	      equ	carry
    260  0000 ????	       00 02	   fz	      equ	zero
    261  0000 ????	       00 03	   fzc	      equ	carry+zero
    262  0000 ????	       00 40	   fv	      equ	overfl
    263  0000 ????	       00 42	   fvz	      equ	overfl+zero
    264  0000 ????	       00 80	   fn	      equ	minus
    265  0000 ????	       00 81	   fnc	      equ	minus+carry
    266  0000 ????	       00 82	   fnz	      equ	minus+zero
    267  0000 ????	       00 83	   fnzc       equ	minus+zero+carry
    268  0000 ????	       00 c0	   fnv	      equ	minus+overfl
    269  0000 ????
    270  0000 ????	       00 30	   fao	      equ	break+reserv	;bits always on after PHP, BRK
    271  0000 ????	       00 34	   fai	      equ	fao+intdis	;+ forced interrupt disable
    272  0000 ????	       00 38	   faod       equ	fao+decmode	;+ ignore decimal
    273  0000 ????	       00 3c	   faid       equ	fai+decmode	;+ ignore decimal
    274  0000 ????	       00 ff	   m8	      equ	$ff	;8 bit mask
    275  0000 ????	       00 fb	   m8i	      equ	$ff&~intdis	;8 bit mask - interrupt disable
    276  0000 ????
    277  0000 ????						;macros to allow masking of status bits.
    278  0000 ????						;masking test of decimal bit
    279  0000 ????						;masking of interrupt enable/disable on load and compare
    280  0000 ????						;masking of always on bits after PHP or BRK (unused & break) on compare
    281  0000 ????				      if	disable_decimal < 2
    282  0000 ????			  -	      if	I_flag = 0
    285  0000 ????			  -	      endm
    288  0000 ????			  -	      endm
    291  0000 ????			  -	      endm
    292  0000 ????				      endif
    293  0000 ????				      if	I_flag = 1
    294  0000 ????			   load_flag  macro
    295  0000 ????				      lda	#{0}|intdis	;force disable interrupts
    296  0000 ????				      endm
    297  0000 ????			   cmp_flag   macro
    298  0000 ????				      cmp	#({0}|fai)&m8	;I_flag is always disabled + always on bits
    299  0000 ????				      endm
    300  0000 ????			   eor_flag   macro
    301  0000 ????				      eor	#({0}|fai)	;invert expected flags + always on bits + I
    302  0000 ????				      endm
    303  0000 ????				      endif
    304  0000 ????			  -	      if	I_flag = 2
    309  0000 ????			  -	      endm
    313  0000 ????			  -	      endm
    317  0000 ????			  -	      endm
    318  0000 ????				      endif
    319  0000 ????			  -	      if	I_flag = 3
    322  0000 ????			  -	      endm
    325  0000 ????			  -	      endm
    328  0000 ????			  -	      endm
    329  0000 ????				      endif
    330  0000 ????			  -	      else
    331  0000 ????			  -	      if	I_flag = 0
    334  0000 ????			  -	      endm
    338  0000 ????			  -	      endm
    342  0000 ????			  -	      endm
    343  0000 ????			  -	      endif
    344  0000 ????			  -	      if	I_flag = 1
    347  0000 ????			  -	      endm
    351  0000 ????			  -	      endm
    355  0000 ????			  -	      endm
    356  0000 ????			  -	      endif
    357  0000 ????			  -	      if	I_flag = 2
    362  0000 ????			  -	      endm
    367  0000 ????			  -	      endm
    372  0000 ????			  -	      endm
    373  0000 ????			  -	      endif
    374  0000 ????			  -	      if	I_flag = 3
    377  0000 ????			  -	      endm
    381  0000 ????			  -	      endm
    385  0000 ????			  -	      endm
    386  0000 ????			  -	      endif
    387  0000 ????				      endif
    388  0000 ????
    389  0000 ????						;macros to set (register|memory|zeropage) & status
    390  0000 ????			   set_stat   macro
    391  0000 ????				      load_flag	{0}
    392  0000 ????				      pha		;use stack to load status
    393  0000 ????				      plp
    394  0000 ????				      endm		;setting flags in the processor status register
    395  0000 ????
    396  0000 ????			   set_a      macro
    397  0000 ????				      load_flag	{1}
    398  0000 ????				      pha		;use stack to load status
    399  0000 ????				      lda	#{0}	;precharge accu
    400  0000 ????				      plp
    401  0000 ????				      endm		;precharging accu & status
    402  0000 ????
    403  0000 ????			   set_x      macro
    404  0000 ????				      load_flag	{1}
    405  0000 ????				      pha		;use stack to load status
    406  0000 ????				      ldx	#{0}	;precharge index x
    407  0000 ????				      plp
    408  0000 ????				      endm		;precharging index & status
    409  0000 ????
    410  0000 ????			   set_y      macro
    411  0000 ????				      load_flag	{1}
    412  0000 ????				      pha		;use stack to load status
    413  0000 ????				      ldy	#{0}	;precharge index y
    414  0000 ????				      plp
    415  0000 ????				      endm		;precharging index & status
    416  0000 ????
    417  0000 ????			   set_ax     macro
    418  0000 ????				      load_flag	{1}
    419  0000 ????				      pha		;use stack to load status
    420  0000 ????				      lda	{0},x	;precharge accu
    421  0000 ????				      plp
    422  0000 ????				      endm		;precharging indexed accu & immediate status
    423  0000 ????
    424  0000 ????			   set_ay     macro
    425  0000 ????				      load_flag	{1}
    426  0000 ????				      pha		;use stack to load status
    427  0000 ????				      lda	{0},y	;precharge accu
    428  0000 ????				      plp
    429  0000 ????				      endm		;precharging indexed accu & immediate status
    430  0000 ????
    431  0000 ????			   set_z      macro
    432  0000 ????				      load_flag	{1}
    433  0000 ????				      pha		;use stack to load status
    434  0000 ????				      lda	{0},x	;load to zeropage
    435  0000 ????				      sta	zpt
    436  0000 ????				      plp
    437  0000 ????				      endm		;precharging indexed zp & immediate status
    438  0000 ????
    439  0000 ????			   set_zx     macro
    440  0000 ????				      load_flag	{1}
    441  0000 ????				      pha		;use stack to load status
    442  0000 ????				      lda	{0},x	;load to indexed zeropage
    443  0000 ????				      sta	zpt,x
    444  0000 ????				      plp
    445  0000 ????				      endm		;precharging zp,x & immediate status
    446  0000 ????
    447  0000 ????			   set_abs    macro
    448  0000 ????				      load_flag	{1}
    449  0000 ????				      pha		;use stack to load status
    450  0000 ????				      lda	{0},x	;load to memory
    451  0000 ????				      sta	abst
    452  0000 ????				      plp
    453  0000 ????				      endm		;precharging indexed memory & immediate status
    454  0000 ????
    455  0000 ????			   set_absx   macro
    456  0000 ????				      load_flag	{1}
    457  0000 ????				      pha		;use stack to load status
    458  0000 ????				      lda	{0},x	;load to indexed memory
    459  0000 ????				      sta	abst,x
    460  0000 ????				      plp
    461  0000 ????				      endm		;precharging abs,x & immediate status
    462  0000 ????
    463  0000 ????						;macros to test (register|memory|zeropage) & status & (mask)
    464  0000 ????			   tst_stat   macro
    465  0000 ????				      php		;save status
    466  0000 ????				      pla		;use stack to retrieve status
    467  0000 ????				      pha
    468  0000 ????				      cmp_flag	{0}
    469  0000 ????				      trap_ne
    470  0000 ????				      plp		;restore status
    471  0000 ????				      endm		;testing flags in the processor status register
    472  0000 ????
    473  0000 ????			   tst_a      macro
    474  0000 ????				      php		;save flags
    475  0000 ????				      cmp	#{0}	;test result
    476  0000 ????				      trap_ne
    477  0000 ????				      pla		;load status
    478  0000 ????				      pha
    479  0000 ????				      cmp_flag	{1}
    480  0000 ????				      trap_ne
    481  0000 ????				      plp		;restore status
    482  0000 ????				      endm		;testing result in accu & flags
    483  0000 ????
    484  0000 ????			   tst_x      macro
    485  0000 ????				      php		;save flags
    486  0000 ????				      cpx	#{0}	;test result
    487  0000 ????				      trap_ne
    488  0000 ????				      pla		;load status
    489  0000 ????				      pha
    490  0000 ????				      cmp_flag	{1}
    491  0000 ????				      trap_ne
    492  0000 ????				      plp		;restore status
    493  0000 ????				      endm		;testing result in x index & flags
    494  0000 ????
    495  0000 ????			   tst_y      macro
    496  0000 ????				      php		;save flags
    497  0000 ????				      cpy	#{0}	;test result
    498  0000 ????				      trap_ne
    499  0000 ????				      pla		;load status
    500  0000 ????				      pha
    501  0000 ????				      cmp_flag	{1}
    502  0000 ????				      trap_ne
    503  0000 ????				      plp		;restore status
    504  0000 ????				      endm		;testing result in y index & flags
    505  0000 ????
    506  0000 ????			   tst_ax     macro
    507  0000 ????				      php		;save flags
    508  0000 ????				      cmp	{0},x	;test result
    509  0000 ????				      trap_ne
    510  0000 ????				      pla		;load status
    511  0000 ????				      eor_flag	{2}
    512  0000 ????				      cmp	{1},x	;test flags
    513  0000 ????				      trap_ne		;
    514  0000 ????				      endm		;indexed testing result in accu & flags
    515  0000 ????
    516  0000 ????			   tst_ay     macro
    517  0000 ????				      php		;save flags
    518  0000 ????				      cmp	{0},y	;test result
    519  0000 ????				      trap_ne		;
    520  0000 ????				      pla		;load status
    521  0000 ????				      eor_flag	{2}
    522  0000 ????				      cmp	{1},y	;test flags
    523  0000 ????				      trap_ne
    524  0000 ????				      endm		;indexed testing result in accu & flags
    525  0000 ????
    526  0000 ????			   tst_z      macro
    527  0000 ????				      php		;save flags
    528  0000 ????				      lda	zpt
    529  0000 ????				      cmp	{0},x	;test result
    530  0000 ????				      trap_ne
    531  0000 ????				      pla		;load status
    532  0000 ????				      eor_flag	{2}
    533  0000 ????				      cmp	{1},x	;test flags
    534  0000 ????				      trap_ne
    535  0000 ????				      endm		;indexed testing result in zp & flags
    536  0000 ????
    537  0000 ????			   tst_zx     macro
    538  0000 ????				      php		;save flags
    539  0000 ????				      lda	zpt,x
    540  0000 ????				      cmp	{0},x	;test result
    541  0000 ????				      trap_ne
    542  0000 ????				      pla		;load status
    543  0000 ????				      eor_flag	{2}
    544  0000 ????				      cmp	{1},x	;test flags
    545  0000 ????				      trap_ne
    546  0000 ????				      endm		;testing result in zp,x & flags
    547  0000 ????
    548  0000 ????			   tst_abs    macro
    549  0000 ????				      php		;save flags
    550  0000 ????				      lda	abst
    551  0000 ????				      cmp	{0},x	;test result
    552  0000 ????				      trap_ne
    553  0000 ????				      pla		;load status
    554  0000 ????				      eor_flag	{2}
    555  0000 ????				      cmp	{1},x	;test flags
    556  0000 ????				      trap_ne
    557  0000 ????				      endm		;indexed testing result in memory & flags
    558  0000 ????
    559  0000 ????			   tst_absx   macro
    560  0000 ????				      php		;save flags
    561  0000 ????				      lda	abst,x
    562  0000 ????				      cmp	{0},x	;test result
    563  0000 ????				      trap_ne
    564  0000 ????				      pla		;load status
    565  0000 ????				      eor_flag	{2}
    566  0000 ????				      cmp	{1},x	;test flags
    567  0000 ????				      trap_ne
    568  0000 ????				      endm		;testing result in abs,x & flags
    569  0000 ????
    570  0000 ????						; RAM integrity test
    571  0000 ????						;   verifies that none of the previous tests has altered RAM outside of the
    572  0000 ????						;   designated write areas.
    573  0000 ????						;   uses zpt word as indirect pointer, zpt+2 word as checksum
    574  0000 ????			  -	      if	ram_top > -1
    610  0000 ????			  -	      endm
    611  0000 ????				      else
    612  0000 ????			   check_ram  macro
    613  0000 ????						;RAM check disabled - RAM size not set
    614  0000 ????				      endm
    615  0000 ????				      endif
    616  0000 ????
    617  0000 ????			   next_test  macro
    618  0000 ????				      lda	test_case	;previous test
    619  0000 ????				      cmp	#test_num
    620  0000 ????				      trap_ne		;test is out of sequence
    621  0000 ????			   test_num   =	test_num + 1
    622  0000 ????				      lda	#test_num	;*** next tests' number
    623  0000 ????				      sta	test_case
    624  0000 ????						;check_ram	  ;uncomment to find altered RAM after each test
    625  0000 ????				      endm		;make sure, tests don't jump the fence
    626  0000 ????
    627  0000 ????			  -	      if	load_data_direct = 1
    628  0000 ????			  -	      data
    629  0000 ????				      else
unittest.asm (630): error: Unknown Mnemonic 'bss'.
    630  0000 ????				      bss		;uninitialized segment, copy of data at end of code!
    631  0000 ????				      endif
    632  0040					      org	zero_page
    633  0040							;break test interrupt save
    634  0040		       00	   irq_a      ds	1	;a register
    635  0041		       00	   irq_x      ds	1	;x register
    636  0042				  -	      if	I_flag = 2
    637  0042				  -			;masking for I bit in status
    638  0042				  -flag_I_on  ds	1	;or mask to load flags
    639  0042				  -flag_I_off ds	1	;and mask to load flags
    640  0042					      endif
    641  0042				   zpt			;6 bytes store/modify test area
    642  0042							;add/subtract operand generation and result/flag prediction
    643  0042		       00	   adfc       ds	1	;carry flag before op
    644  0043		       00	   ad1	      ds	1	;operand 1 - accumulator
    645  0044		       00	   ad2	      ds	1	;operand 2 - memory / immediate
    646  0045		       00	   adrl       ds	1	;expected result bits 0-7
    647  0046		       00	   adrh       ds	1	;expected result bit 8 (carry)
    648  0047		       00	   adrf       ds	1	;expected flags NV0000ZC (only binary mode)
    649  0048		       00	   sb2	      ds	1	;operand 2 complemented for subtract
    650  0049				   zp_bss
      0  0049				   zps	      db	$80,1	;additional shift pattern to test zero result & flag
      1  0049		       80 01		      .byte.b	$80,1
      0  004b				   zp1	      db	$c3,$82,$41,0	;test patterns for LDx BIT ROL ROR ASL LSR
      1  004b		       c3 82 41 00	      .byte.b	$c3,$82,$41,0
      0  004f				   zp7f       db	$7f	;test pattern for compare
      1  004f		       7f		      .byte.b	$7f
    654  0050							;logical zeropage operands
      0  0050				   zpOR       db	0,$1f,$71,$80	;test pattern for OR
      1  0050		       00 1f 71 80	      .byte.b	0,$1f,$71,$80
      0  0054				   zpAN       db	$0f,$ff,$7f,$80	;test pattern for AND
      1  0054		       0f ff 7f 80	      .byte.b	$0f,$ff,$7f,$80
      0  0058				   zpEO       db	$ff,$0f,$8f,$8f	;test pattern for EOR
      1  0058		       ff 0f 8f 8f	      .byte.b	$ff,$0f,$8f,$8f
    658  005c							;indirect addressing pointers
      0  005c				   ind1       dw	abs1	;indirect pointer to pattern in absolute memory
      1  005c		       00 00		      .word.w	abs1
      0  005e					      dw	abs1+1
      1  005e		       01 00		      .word.w	abs1+1
      0  0060					      dw	abs1+2
      1  0060		       02 00		      .word.w	abs1+2
      0  0062					      dw	abs1+3
      1  0062		       03 00		      .word.w	abs1+3
      0  0064					      dw	abs7f
      1  0064		       00 00		      .word.w	abs7f
      0  0066				   inw1       dw	abs1-$f8	;indirect pointer for wrap-test pattern
      1  0066		       08 ff		      .word.w	abs1-$f8
      0  0068				   indt       dw	abst	;indirect pointer to store area in absolute memory
      1  0068		       00 00		      .word.w	abst
      0  006a					      dw	abst+1
      1  006a		       01 00		      .word.w	abst+1
      0  006c					      dw	abst+2
      1  006c		       02 00		      .word.w	abst+2
      0  006e					      dw	abst+3
      1  006e		       03 00		      .word.w	abst+3
      0  0070				   inwt       dw	abst-$f8	;indirect pointer for wrap-test store
      1  0070		       08 ff		      .word.w	abst-$f8
      0  0072				   indAN      dw	absAN	;indirect pointer to AND pattern in absolute memory
      1  0072		       00 00		      .word.w	absAN
      0  0074					      dw	absAN+1
      1  0074		       01 00		      .word.w	absAN+1
      0  0076					      dw	absAN+2
      1  0076		       02 00		      .word.w	absAN+2
      0  0078					      dw	absAN+3
      1  0078		       03 00		      .word.w	absAN+3
      0  007a				   indEO      dw	absEO	;indirect pointer to EOR pattern in absolute memory
      1  007a		       00 00		      .word.w	absEO
      0  007c					      dw	absEO+1
      1  007c		       01 00		      .word.w	absEO+1
      0  007e					      dw	absEO+2
      1  007e		       02 00		      .word.w	absEO+2
      0  0080					      dw	absEO+3
      1  0080		       03 00		      .word.w	absEO+3
      0  0082				   indOR      dw	absOR	;indirect pointer to OR pattern in absolute memory
      1  0082		       00 00		      .word.w	absOR
      0  0084					      dw	absOR+1
      1  0084		       01 00		      .word.w	absOR+1
      0  0086					      dw	absOR+2
      1  0086		       02 00		      .word.w	absOR+2
      0  0088					      dw	absOR+3
      1  0088		       03 00		      .word.w	absOR+3
    682  008a							;add/subtract indirect pointers
      0  008a				   adi2       dw	ada2	;indirect pointer to operand 2 in absolute memory
      1  008a		       00 00		      .word.w	ada2
      0  008c				   sbi2       dw	sba2	;indirect pointer to complemented operand 2 (SBC)
      1  008c		       00 00		      .word.w	sba2
      0  008e				   adiy2      dw	ada2-$ff	;with offset for indirect indexed
      1  008e		       01 ff		      .word.w	ada2-$ff
      0  0090				   sbiy2      dw	sba2-$ff
      1  0090		       01 ff		      .word.w	sba2-$ff
    687  0092				   zp_bss_end
    688  0092
    689  0200					      org	data_segment
    690  0200		       00	   test_case  ds	1	;current test number
    691  0201		       00 00	   ram_chksm  ds	2	;checksum for RAM integrity test
    692  0203							;add/subtract operand copy - abs tests write area
    693  0203				   abst 		;6 bytes store/modify test area
    694  0203		       00	   ada2       ds	1	;operand 2
    695  0204		       00	   sba2       ds	1	;operand 2 complemented for subtract
    696  0205		       00 00 00 00	      ds	4	;fill remaining bytes
    697  0209				   data_bss
    698  0209				  -	      if	load_data_direct = 1
    699  0209				  -ex_andi    and	#0	;execute immediate opcodes
    700  0209				  -	      rts
    701  0209				  -ex_eori    eor	#0	;execute immediate opcodes
    702  0209				  -	      rts
    703  0209				  -ex_orai    ora	#0	;execute immediate opcodes
    704  0209				  -	      rts
    705  0209				  -ex_adci    adc	#0	;execute immediate opcodes
    706  0209				  -	      rts
    707  0209				  -ex_sbci    sbc	#0	;execute immediate opcodes
    708  0209				  -	      rts
    709  0209					      else
    710  0209		       00 00 00    ex_andi    ds	3
    711  020c		       00 00 00    ex_eori    ds	3
    712  020f		       00 00 00    ex_orai    ds	3
    713  0212		       00 00 00    ex_adci    ds	3
    714  0215		       00 00 00    ex_sbci    ds	3
    715  0218					      endif
    716  0218							;zps	 db  $80,1	     ;additional shift patterns test zero result & flag
      0  0218				   abs1       db	$c3,$82,$41,0	;test patterns for LDx BIT ROL ROR ASL LSR
      1  0218		       c3 82 41 00	      .byte.b	$c3,$82,$41,0
      0  021c				   abs7f      db	$7f	;test pattern for compare
      1  021c		       7f		      .byte.b	$7f
    719  021d							;loads
      0  021d				   fLDx       db	fn,fn,0,fz	;expected flags for load
      1  021d		       80 80 00 02	      .byte.b	fn,fn,0,fz
    721  0221							;shifts
    722  0221				   rASL 		;expected result ASL & ROL -carry
      0  0221				   rROL       db	0,2,$86,$04,$82,0
      1  0221		       00 02 86 04*	      .byte.b	0,2,$86,$04,$82,0
      0  0227				   rROLc      db	1,3,$87,$05,$83,1	;expected result ROL +carry
      1  0227		       01 03 87 05*	      .byte.b	1,3,$87,$05,$83,1
    725  022d				   rLSR 		;expected result LSR & ROR -carry
      0  022d				   rROR       db	$40,0,$61,$41,$20,0
      1  022d		       40 00 61 41*	      .byte.b	$40,0,$61,$41,$20,0
      0  0233				   rRORc      db	$c0,$80,$e1,$c1,$a0,$80	;expected result ROR +carry
      1  0233		       c0 80 e1 c1*	      .byte.b	$c0,$80,$e1,$c1,$a0,$80
    728  0239				   fASL 		;expected flags for shifts
      0  0239				   fROL       db	fzc,0,fnc,fc,fn,fz	;no carry in
      1  0239		       03 00 81 01*	      .byte.b	fzc,0,fnc,fc,fn,fz
      0  023f				   fROLc      db	fc,0,fnc,fc,fn,0	;carry in
      1  023f		       01 00 81 01*	      .byte.b	fc,0,fnc,fc,fn,0
    731  0245				   fLSR
      0  0245				   fROR       db	0,fzc,fc,0,fc,fz	;no carry in
      1  0245		       00 03 01 00*	      .byte.b	0,fzc,fc,0,fc,fz
      0  024b				   fRORc      db	fn,fnc,fnc,fn,fnc,fn	;carry in
      1  024b		       80 81 81 80*	      .byte.b	fn,fnc,fnc,fn,fnc,fn
    734  0251							;increments (decrements)
      0  0251				   rINC       db	$7f,$80,$ff,0,1	;expected result for INC/DEC
      1  0251		       7f 80 ff 00*	      .byte.b	$7f,$80,$ff,0,1
      0  0256				   fINC       db	0,fn,fn,fz,0	;expected flags for INC/DEC
      1  0256		       00 80 80 02*	      .byte.b	0,fn,fn,fz,0
    737  025b							;logical memory operand
      0  025b				   absOR      db	0,$1f,$71,$80	;test pattern for OR
      1  025b		       00 1f 71 80	      .byte.b	0,$1f,$71,$80
      0  025f				   absAN      db	$0f,$ff,$7f,$80	;test pattern for AND
      1  025f		       0f ff 7f 80	      .byte.b	$0f,$ff,$7f,$80
      0  0263				   absEO      db	$ff,$0f,$8f,$8f	;test pattern for EOR
      1  0263		       ff 0f 8f 8f	      .byte.b	$ff,$0f,$8f,$8f
    741  0267							;logical accu operand
      0  0267				   absORa     db	0,$f1,$1f,0	;test pattern for OR
      1  0267		       00 f1 1f 00	      .byte.b	0,$f1,$1f,0
      0  026b				   absANa     db	$f0,$ff,$ff,$ff	;test pattern for AND
      1  026b		       f0 ff ff ff	      .byte.b	$f0,$ff,$ff,$ff
      0  026f				   absEOa     db	$ff,$f0,$f0,$0f	;test pattern for EOR
      1  026f		       ff f0 f0 0f	      .byte.b	$ff,$f0,$f0,$0f
    745  0273							;logical results
      0  0273				   absrlo     db	0,$ff,$7f,$80
      1  0273		       00 ff 7f 80	      .byte.b	0,$ff,$7f,$80
      0  0277				   absflo     db	fz,fn,0,fn
      1  0277		       02 80 00 80	      .byte.b	fz,fn,0,fn
    748  027b				   data_bss_end
    749  027b
    750  027b
unittest.asm (751): error: Unknown Mnemonic 'code'.
    751  027b					      code
    752  0400					      org	code_segment
    753  0400		       d8	   start      cld
    754  0401		       a2 ff		      ldx	#$ff
    755  0403		       9a		      txs
    756  0404		       a9 00		      lda	#0	;*** test 0 = initialize
    757  0406		       8d 00 02 	      sta	test_case
    758  0406		       00 00	   test_num   =	0
    759  0409
    760  0409							;stop interrupts before initializing BSS
    761  0409					      if	I_flag = 1
    762  0409		       78		      sei
    763  040a					      endif
    764  040a
    765  040a							;initialize I/O for report channel
    766  040a				  -	      if	report = 1
    767  040a				  -	      jsr	report_init
    768  040a					      endif
    769  040a
    770  040a							;pretest small branch offset
    771  040a		       a2 05		      ldx	#5
    772  040c		       4c 00 00 	      jmp	psb_test
    773  040f				   psb_bwok
    774  040f		       a0 05		      ldy	#5
    775  0411		       d0 05		      bne	psb_forw
unittest.asm (776): error: Unknown Mnemonic 'trap'.
    776  0411					      trap		;branch should be taken
    777  0413		       88		      dey		;forward landing zone
    778  0414		       88		      dey
    779  0415		       88		      dey
    780  0416		       88		      dey
    781  0417		       88		      dey
    782  0418				   psb_forw
    783  0418		       88		      dey
    784  0419		       88		      dey
    785  041a		       88		      dey
    786  041b		       88		      dey
    787  041c		       88		      dey
    788  041d		       f0 05		      beq	psb_fwok
unittest.asm (789): error: Unknown Mnemonic 'trap'.
    789  041d					      trap		;forward offset
    790  041f
    791  041f		       ca		      dex		;backward landing zone
    792  0420		       ca		      dex
    793  0421		       ca		      dex
    794  0422		       ca		      dex
    795  0423		       ca		      dex
    796  0424				   psb_back
    797  0424		       ca		      dex
    798  0425		       ca		      dex
    799  0426		       ca		      dex
    800  0427		       ca		      dex
    801  0428		       ca		      dex
    802  0429		       f0 e4		      beq	psb_bwok
unittest.asm (803): error: Unknown Mnemonic 'trap'.
    803  0429					      trap		;backward offset
    804  042b				   psb_test
    805  042b		       d0 f7		      bne	psb_back
unittest.asm (806): error: Unknown Mnemonic 'trap'.
    806  042b					      trap		;branch should be taken
    807  042d				   psb_fwok
    808  042d
    809  042d							;initialize BSS segment
    810  042d					      if	load_data_direct != 1
    811  042d		       a2 ff		      ldx	#zp_end-zp_init-1
    812  042f		       bd 00 00    ld_zp      lda	zp_init,x
    813  0432		       95 49		      sta	zp_bss,x
    814  0434		       ca		      dex
    815  0435		       10 f8		      bpl	ld_zp
    816  0437		       a2 ff		      ldx	#data_end-data_init-1
    817  0439		       bd 00 00    ld_data    lda	data_init,x
    818  043c		       9d 09 02 	      sta	data_bss,x
    819  043f		       ca		      dex
    820  0440		       10 f7		      bpl	ld_data
    821  0442				  -	      if	ROM_vectors = 1
    822  0442				  -	      ldx	#5
    823  0442				  -ld_vect    lda	vec_init,x
    824  0442				  -	      sta	vec_bss,x
    825  0442				  -	      dex
    826  0442				  -	      bpl	ld_vect
    827  0442					      endif
    828  0442					      endif
    829  0442
    830  0442							;retain status of interrupt flag
    831  0442				  -	      if	I_flag = 2
    832  0442				  -	      php
    833  0442				  -	      pla
    834  0442				  -	      and	#4	;isolate flag
    835  0442				  -	      sta	flag_I_on	;or mask
    836  0442				  -	      eor	#lo(~4)	;reverse
    837  0442				  -	      sta	flag_I_off	;and mask
    838  0442					      endif
    839  0442
    840  0442							;generate checksum for RAM integrity test
    841  0442				  -	      if	ram_top > -1
    842  0442				  -	      lda	#0
    843  0442				  -	      sta	zpt	;set low byte of indirect pointer
    844  0442				  -	      sta	ram_chksm+1	;checksum high byte
    845  0442				  -	      if	disable_selfmod = 0
    846  0442				  -	      sta	range_adr	;reset self modifying code
    847  0442				  -	      endif
    848  0442				  -	      clc
    849  0442				  -	      ldx	#zp_bss-zero_page	;zeropage - write test area
    850  0442				  -gcs3       adc	zero_page,x
    851  0442				  -	      bcc	gcs2
    852  0442				  -	      inc	ram_chksm+1	;carry to high byte
    853  0442				  -	      clc
    854  0442				  -gcs2       inx
    855  0442				  -	      bne	gcs3
    856  0442				  -	      ldx	#hi(abs1)	;set high byte of indirect pointer
    857  0442				  -	      stx	zpt+1
    858  0442				  -	      ldy	#lo(abs1)	;data after write & execute test area
    859  0442				  -gcs5       adc	(zpt),y
    860  0442				  -	      bcc	gcs4
    861  0442				  -	      inc	ram_chksm+1	;carry to high byte
    862  0442				  -	      clc
    863  0442				  -gcs4       iny
    864  0442				  -	      bne	gcs5
    865  0442				  -	      inx		;advance RAM high address
    866  0442				  -	      stx	zpt+1
    867  0442				  -	      cpx	#ram_top
    868  0442				  -	      bne	gcs5
    869  0442				  -	      sta	ram_chksm	;checksum complete
    870  0442					      endif
unittest.asm (871): error: Unknown Mnemonic 'next_test'.
    871  0442					      next_test
    872  0442
    873  0442					      if	disable_selfmod = 0
    874  0442							;testing relative addressing with BEQ
    875  0442		       a0 fe		      ldy	#$fe	;testing maximum range, not -1/-2 (invalid/self adr)
    876  0444				   range_loop
    877  0444		       88		      dey		;next relative address
    878  0445		       98		      tya
    879  0446		       aa		      tax		;precharge count to end of loop
    880  0447		       10 fe		      bpl	range_fw	;calculate relative address
    881  0449		       18		      clc		;avoid branch self or to relative address of branch
    882  044a		       69 02		      adc	#2
    883  044c		       ea		      nop		;offset landing zone - tolerate +/-5 offset to branch
    884  044d		       ea		      nop
    885  044e		       ea		      nop
    886  044f		       ea		      nop
    887  0450		       ea		      nop
    888  0451				   range_fw
    889  0451		       ea		      nop
    890  0452		       ea		      nop
    891  0453		       ea		      nop
    892  0454		       ea		      nop
    893  0455		       ea		      nop
    894  0456		       49 7f		      eor	#$7f	;complement except sign
    895  0458		       8d 00 00 	      sta	range_adr	;load into test target
    896  045b		       a9 00		      lda	#0	;should set zero flag in status register
    897  045d		       4c 00 00 	      jmp	range_op
    898  0460
    899  0460		       ca		      dex		; offset landing zone - backward branch too far
    900  0461		       ca		      dex
    901  0462		       ca		      dex
    902  0463		       ca		      dex
    903  0464		       ca		      dex
    904  0465							;relative address target field with branch under test in the middle
    905  0465		       ca		      dex		;-128 - max backward
    906  0466		       ca		      dex
    907  0467		       ca		      dex
    908  0468		       ca		      dex
    909  0469		       ca		      dex
    910  046a		       ca		      dex
    911  046b		       ca		      dex
    912  046c		       ca		      dex
    913  046d		       ca		      dex		;-120
    914  046e		       ca		      dex
    915  046f		       ca		      dex
    916  0470		       ca		      dex
    917  0471		       ca		      dex
    918  0472		       ca		      dex
    919  0473		       ca		      dex
    920  0474		       ca		      dex
    921  0475		       ca		      dex
    922  0476		       ca		      dex
    923  0477		       ca		      dex		;-110
    924  0478		       ca		      dex
    925  0479		       ca		      dex
    926  047a		       ca		      dex
    927  047b		       ca		      dex
    928  047c		       ca		      dex
    929  047d		       ca		      dex
    930  047e		       ca		      dex
    931  047f		       ca		      dex
    932  0480		       ca		      dex
    933  0481		       ca		      dex		;-100
    934  0482		       ca		      dex
    935  0483		       ca		      dex
    936  0484		       ca		      dex
    937  0485		       ca		      dex
    938  0486		       ca		      dex
    939  0487		       ca		      dex
    940  0488		       ca		      dex
    941  0489		       ca		      dex
    942  048a		       ca		      dex
    943  048b		       ca		      dex		;-90
    944  048c		       ca		      dex
    945  048d		       ca		      dex
    946  048e		       ca		      dex
    947  048f		       ca		      dex
    948  0490		       ca		      dex
    949  0491		       ca		      dex
    950  0492		       ca		      dex
    951  0493		       ca		      dex
    952  0494		       ca		      dex
    953  0495		       ca		      dex		;-80
    954  0496		       ca		      dex
    955  0497		       ca		      dex
    956  0498		       ca		      dex
    957  0499		       ca		      dex
    958  049a		       ca		      dex
    959  049b		       ca		      dex
    960  049c		       ca		      dex
    961  049d		       ca		      dex
    962  049e		       ca		      dex
    963  049f		       ca		      dex		;-70
    964  04a0		       ca		      dex
    965  04a1		       ca		      dex
    966  04a2		       ca		      dex
    967  04a3		       ca		      dex
    968  04a4		       ca		      dex
    969  04a5		       ca		      dex
    970  04a6		       ca		      dex
    971  04a7		       ca		      dex
    972  04a8		       ca		      dex
    973  04a9		       ca		      dex		;-60
    974  04aa		       ca		      dex
    975  04ab		       ca		      dex
    976  04ac		       ca		      dex
    977  04ad		       ca		      dex
    978  04ae		       ca		      dex
    979  04af		       ca		      dex
    980  04b0		       ca		      dex
    981  04b1		       ca		      dex
    982  04b2		       ca		      dex
    983  04b3		       ca		      dex		;-50
    984  04b4		       ca		      dex
    985  04b5		       ca		      dex
    986  04b6		       ca		      dex
    987  04b7		       ca		      dex
    988  04b8		       ca		      dex
    989  04b9		       ca		      dex
    990  04ba		       ca		      dex
    991  04bb		       ca		      dex
    992  04bc		       ca		      dex
    993  04bd		       ca		      dex		;-40
    994  04be		       ca		      dex
    995  04bf		       ca		      dex
    996  04c0		       ca		      dex
    997  04c1		       ca		      dex
    998  04c2		       ca		      dex
    999  04c3		       ca		      dex
   1000  04c4		       ca		      dex
   1001  04c5		       ca		      dex
   1002  04c6		       ca		      dex
   1003  04c7		       ca		      dex		;-30
   1004  04c8		       ca		      dex
   1005  04c9		       ca		      dex
   1006  04ca		       ca		      dex
   1007  04cb		       ca		      dex
   1008  04cc		       ca		      dex
   1009  04cd		       ca		      dex
   1010  04ce		       ca		      dex
   1011  04cf		       ca		      dex
   1012  04d0		       ca		      dex
   1013  04d1		       ca		      dex		;-20
   1014  04d2		       ca		      dex
   1015  04d3		       ca		      dex
   1016  04d4		       ca		      dex
   1017  04d5		       ca		      dex
   1018  04d6		       ca		      dex
   1019  04d7		       ca		      dex
   1020  04d8		       ca		      dex
   1021  04d9		       ca		      dex
   1022  04da		       ca		      dex
   1023  04db		       ca		      dex		;-10
   1024  04dc		       ca		      dex
   1025  04dd		       ca		      dex
   1026  04de		       ca		      dex
   1027  04df		       ca		      dex
   1028  04e0		       ca		      dex
   1029  04e1		       ca		      dex
   1030  04e2		       ca		      dex		;-3
   1031  04e3				   range_op		;test target with zero flag=0, z=1 if previous dex
   1032  04e3		       04 e4	   range_adr  =	*+1	;modifiable relative address
   1033  04e3		       f0 3e		      beq	*+64	;+64 if called without modification
   1034  04e5		       ca		      dex		;+0
   1035  04e6		       ca		      dex
   1036  04e7		       ca		      dex
   1037  04e8		       ca		      dex
   1038  04e9		       ca		      dex
   1039  04ea		       ca		      dex
   1040  04eb		       ca		      dex
   1041  04ec		       ca		      dex
   1042  04ed		       ca		      dex
   1043  04ee		       ca		      dex
   1044  04ef		       ca		      dex		;+10
   1045  04f0		       ca		      dex
   1046  04f1		       ca		      dex
   1047  04f2		       ca		      dex
   1048  04f3		       ca		      dex
   1049  04f4		       ca		      dex
   1050  04f5		       ca		      dex
   1051  04f6		       ca		      dex
   1052  04f7		       ca		      dex
   1053  04f8		       ca		      dex
   1054  04f9		       ca		      dex		;+20
   1055  04fa		       ca		      dex
   1056  04fb		       ca		      dex
   1057  04fc		       ca		      dex
   1058  04fd		       ca		      dex
   1059  04fe		       ca		      dex
   1060  04ff		       ca		      dex
   1061  0500		       ca		      dex
   1062  0501		       ca		      dex
   1063  0502		       ca		      dex
   1064  0503		       ca		      dex		;+30
   1065  0504		       ca		      dex
   1066  0505		       ca		      dex
   1067  0506		       ca		      dex
   1068  0507		       ca		      dex
   1069  0508		       ca		      dex
   1070  0509		       ca		      dex
   1071  050a		       ca		      dex
   1072  050b		       ca		      dex
   1073  050c		       ca		      dex
   1074  050d		       ca		      dex		;+40
   1075  050e		       ca		      dex
   1076  050f		       ca		      dex
   1077  0510		       ca		      dex
   1078  0511		       ca		      dex
   1079  0512		       ca		      dex
   1080  0513		       ca		      dex
   1081  0514		       ca		      dex
   1082  0515		       ca		      dex
   1083  0516		       ca		      dex
   1084  0517		       ca		      dex		;+50
   1085  0518		       ca		      dex
   1086  0519		       ca		      dex
   1087  051a		       ca		      dex
   1088  051b		       ca		      dex
   1089  051c		       ca		      dex
   1090  051d		       ca		      dex
   1091  051e		       ca		      dex
   1092  051f		       ca		      dex
   1093  0520		       ca		      dex
   1094  0521		       ca		      dex		;+60
   1095  0522		       ca		      dex
   1096  0523		       ca		      dex
   1097  0524		       ca		      dex
   1098  0525		       ca		      dex
   1099  0526		       ca		      dex
   1100  0527		       ca		      dex
   1101  0528		       ca		      dex
   1102  0529		       ca		      dex
   1103  052a		       ca		      dex
   1104  052b		       ca		      dex		;+70
   1105  052c		       ca		      dex
   1106  052d		       ca		      dex
   1107  052e		       ca		      dex
   1108  052f		       ca		      dex
   1109  0530		       ca		      dex
   1110  0531		       ca		      dex
   1111  0532		       ca		      dex
   1112  0533		       ca		      dex
   1113  0534		       ca		      dex
   1114  0535		       ca		      dex		;+80
   1115  0536		       ca		      dex
   1116  0537		       ca		      dex
   1117  0538		       ca		      dex
   1118  0539		       ca		      dex
   1119  053a		       ca		      dex
   1120  053b		       ca		      dex
   1121  053c		       ca		      dex
   1122  053d		       ca		      dex
   1123  053e		       ca		      dex
   1124  053f		       ca		      dex		;+90
   1125  0540		       ca		      dex
   1126  0541		       ca		      dex
   1127  0542		       ca		      dex
   1128  0543		       ca		      dex
   1129  0544		       ca		      dex
   1130  0545		       ca		      dex
   1131  0546		       ca		      dex
   1132  0547		       ca		      dex
   1133  0548		       ca		      dex
   1134  0549		       ca		      dex		;+100
   1135  054a		       ca		      dex
   1136  054b		       ca		      dex
   1137  054c		       ca		      dex
   1138  054d		       ca		      dex
   1139  054e		       ca		      dex
   1140  054f		       ca		      dex
   1141  0550		       ca		      dex
   1142  0551		       ca		      dex
   1143  0552		       ca		      dex
   1144  0553		       ca		      dex		;+110
   1145  0554		       ca		      dex
   1146  0555		       ca		      dex
   1147  0556		       ca		      dex
   1148  0557		       ca		      dex
   1149  0558		       ca		      dex
   1150  0559		       ca		      dex
   1151  055a		       ca		      dex
   1152  055b		       ca		      dex
   1153  055c		       ca		      dex
   1154  055d		       ca		      dex		;+120
   1155  055e		       ca		      dex
   1156  055f		       ca		      dex
   1157  0560		       ca		      dex
   1158  0561		       ca		      dex
   1159  0562		       ca		      dex
   1160  0563		       ca		      dex
   1161  0564		       ea		      nop		;offset landing zone - forward branch too far
   1162  0565		       ea		      nop
   1163  0566		       ea		      nop
   1164  0567		       ea		      nop
   1165  0568		       ea		      nop
   1166  0569		       f0 3e		      beq	range_ok	;+127 - max forward
unittest.asm (1167): error: Unknown Mnemonic 'trap'.
   1167  0569					      trap		; bad range
   1168  056b		       ea		      nop		;offset landing zone - tolerate +/-5 offset to branch
   1169  056c		       ea		      nop
   1170  056d		       ea		      nop
   1171  056e		       ea		      nop
   1172  056f		       ea		      nop
   1173  0570				   range_ok
   1174  0570		       ea		      nop
   1175  0571		       ea		      nop
   1176  0572		       ea		      nop
   1177  0573		       ea		      nop
   1178  0574		       ea		      nop
   1179  0575		       c0 00		      cpy	#0
   1180  0577		       f0 00		      beq	range_end
   1181  0579		       4c 44 04 	      jmp	range_loop
   1182  057c				   range_end		;range test successful
   1183  057c					      endif
unittest.asm (1184): error: Unknown Mnemonic 'next_test'.
   1184  057c					      next_test
   1185  057c
   1186  057c							;partial test BNE & CMP, CPX, CPY immediate
   1187  057c		       c0 01		      cpy	#1	;testing BNE true
   1188  057e		       d0 01		      bne	test_bne
unittest.asm (1189): error: Unknown Mnemonic 'trap'.
   1189  057e					      trap
   1190  0580				   test_bne
   1191  0580		       a9 00		      lda	#0
   1192  0582		       c9 00		      cmp	#0	;test compare immediate
unittest.asm (1193): error: Unknown Mnemonic 'trap_ne'.
   1193  0582					      trap_ne
unittest.asm (1194): error: Unknown Mnemonic 'trap_cc'.
   1194  0582					      trap_cc
unittest.asm (1195): error: Unknown Mnemonic 'trap_mi'.
   1195  0582					      trap_mi
   1196  0584		       c9 01		      cmp	#1
unittest.asm (1197): error: Unknown Mnemonic 'trap_eq'.
   1197  0584					      trap_eq
unittest.asm (1198): error: Unknown Mnemonic 'trap_cs'.
   1198  0584					      trap_cs
unittest.asm (1199): error: Unknown Mnemonic 'trap_pl'.
   1199  0584					      trap_pl
   1200  0586		       aa		      tax
   1201  0587		       e0 00		      cpx	#0	;test compare x immediate
unittest.asm (1202): error: Unknown Mnemonic 'trap_ne'.
   1202  0587					      trap_ne
unittest.asm (1203): error: Unknown Mnemonic 'trap_cc'.
   1203  0587					      trap_cc
unittest.asm (1204): error: Unknown Mnemonic 'trap_mi'.
   1204  0587					      trap_mi
   1205  0589		       e0 01		      cpx	#1
unittest.asm (1206): error: Unknown Mnemonic 'trap_eq'.
   1206  0589					      trap_eq
unittest.asm (1207): error: Unknown Mnemonic 'trap_cs'.
   1207  0589					      trap_cs
unittest.asm (1208): error: Unknown Mnemonic 'trap_pl'.
   1208  0589					      trap_pl
   1209  058b		       a8		      tay
   1210  058c		       c0 00		      cpy	#0	;test compare y immediate
unittest.asm (1211): error: Unknown Mnemonic 'trap_ne'.
   1211  058c					      trap_ne
unittest.asm (1212): error: Unknown Mnemonic 'trap_cc'.
   1212  058c					      trap_cc
unittest.asm (1213): error: Unknown Mnemonic 'trap_mi'.
   1213  058c					      trap_mi
   1214  058e		       c0 01		      cpy	#1
unittest.asm (1215): error: Unknown Mnemonic 'trap_eq'.
   1215  058e					      trap_eq
unittest.asm (1216): error: Unknown Mnemonic 'trap_cs'.
   1216  058e					      trap_cs
unittest.asm (1217): error: Unknown Mnemonic 'trap_pl'.
   1217  058e					      trap_pl
unittest.asm (1218): error: Unknown Mnemonic 'next_test'.
   1218  058e					      next_test
   1219  0590							;testing stack operations PHA PHP PLA PLP
   1220  0590
   1221  0590		       a2 ff		      ldx	#$ff	;initialize stack
   1222  0592		       9a		      txs
   1223  0593		       a9 55		      lda	#$55
   1224  0595		       48		      pha
   1225  0596		       a9 aa		      lda	#$aa
   1226  0598		       48		      pha
   1227  0599		       cd fe 01 	      cmp	$1fe	;on stack ?
unittest.asm (1228): error: Unknown Mnemonic 'trap_ne'.
   1228  0599					      trap_ne
   1229  059c		       ba		      tsx
   1230  059d		       8a		      txa		;overwrite accu
   1231  059e		       c9 fd		      cmp	#$fd	;sp decremented?
unittest.asm (1232): error: Unknown Mnemonic 'trap_ne'.
   1232  059e					      trap_ne
   1233  05a0		       68		      pla
   1234  05a1		       c9 aa		      cmp	#$aa	;successful retreived from stack?
unittest.asm (1235): error: Unknown Mnemonic 'trap_ne'.
   1235  05a1					      trap_ne
   1236  05a3		       68		      pla
   1237  05a4		       c9 55		      cmp	#$55
unittest.asm (1238): error: Unknown Mnemonic 'trap_ne'.
   1238  05a4					      trap_ne
   1239  05a6		       cd ff 01 	      cmp	$1ff	;remains on stack?
unittest.asm (1240): error: Unknown Mnemonic 'trap_ne'.
   1240  05a6					      trap_ne
   1241  05a9		       ba		      tsx
   1242  05aa		       e0 ff		      cpx	#$ff	;sp incremented?
unittest.asm (1243): error: Unknown Mnemonic 'trap_ne'.
   1243  05aa					      trap_ne
unittest.asm (1244): error: Unknown Mnemonic 'next_test'.
   1244  05aa					      next_test
   1245  05ac
   1246  05ac							;testing branch decisions BPL BMI BVC BVS BCC BCS BNE BEQ
unittest.asm (1247): error: Unknown Mnemonic 'set_stat'.
   1247  05ac					      set_stat	$ff	;all on
   1248  05ac		       10 ff		      bpl	nbr1	;branches should not be taken
   1249  05ae		       50 ff		      bvc	nbr2
   1250  05b0		       90 ff		      bcc	nbr3
   1251  05b2		       d0 ff		      bne	nbr4
   1252  05b4		       30 ff		      bmi	br1	;branches should be taken
unittest.asm (1253): error: Unknown Mnemonic 'trap'.
   1253  05b4					      trap
   1254  05b6		       70 ff	   br1	      bvs	br2
unittest.asm (1255): error: Unknown Mnemonic 'trap'.
   1255  05b6					      trap
   1256  05b8		       b0 ff	   br2	      bcs	br3
unittest.asm (1257): error: Unknown Mnemonic 'trap'.
   1257  05b8					      trap
   1258  05ba		       f0 ff	   br3	      beq	br4
unittest.asm (1259): error: Unknown Mnemonic 'trap'.
   1259  05ba					      trap
   1260  05bc				   nbr1
unittest.asm (1261): error: Unknown Mnemonic 'trap'.
   1261  05bc					      trap		;previous bpl taken
   1262  05bc				   nbr2
unittest.asm (1263): error: Unknown Mnemonic 'trap'.
   1263  05bc					      trap		;previous bvc taken
   1264  05bc				   nbr3
unittest.asm (1265): error: Unknown Mnemonic 'trap'.
   1265  05bc					      trap		;previous bcc taken
   1266  05bc				   nbr4
unittest.asm (1267): error: Unknown Mnemonic 'trap'.
   1267  05bc					      trap		;previous bne taken
   1268  05bc		       08	   br4	      php
   1269  05bd		       ba		      tsx
   1270  05be		       e0 fe		      cpx	#$fe	;sp after php?
unittest.asm (1271): error: Unknown Mnemonic 'trap_ne'.
   1271  05be					      trap_ne
   1272  05c0		       68		      pla
unittest.asm (1273): error: Unknown Mnemonic 'cmp_flag'.
   1273  05c0					      cmp_flag	$ff	;returned all flags on?
unittest.asm (1274): error: Unknown Mnemonic 'trap_ne'.
   1274  05c0					      trap_ne
   1275  05c1		       ba		      tsx
   1276  05c2		       e0 ff		      cpx	#$ff	;sp after php?
unittest.asm (1277): error: Unknown Mnemonic 'trap_ne'.
   1277  05c2					      trap_ne
unittest.asm (1278): error: Unknown Mnemonic 'set_stat'.
   1278  05c2					      set_stat	0	;all off
   1279  05c4		       30 ff		      bmi	nbr11	;branches should not be taken
   1280  05c6		       70 ff		      bvs	nbr12
   1281  05c8		       b0 ff		      bcs	nbr13
   1282  05ca		       f0 ff		      beq	nbr14
   1283  05cc		       10 ff		      bpl	br11	;branches should be taken
unittest.asm (1284): error: Unknown Mnemonic 'trap'.
   1284  05cc					      trap
   1285  05ce		       50 ff	   br11       bvc	br12
unittest.asm (1286): error: Unknown Mnemonic 'trap'.
   1286  05ce					      trap
   1287  05d0		       90 ff	   br12       bcc	br13
unittest.asm (1288): error: Unknown Mnemonic 'trap'.
   1288  05d0					      trap
   1289  05d2		       d0 ff	   br13       bne	br14
unittest.asm (1290): error: Unknown Mnemonic 'trap'.
   1290  05d2					      trap
   1291  05d4				   nbr11
unittest.asm (1292): error: Unknown Mnemonic 'trap'.
   1292  05d4					      trap		;previous bmi taken
   1293  05d4				   nbr12
unittest.asm (1294): error: Unknown Mnemonic 'trap'.
   1294  05d4					      trap		;previous bvs taken
   1295  05d4				   nbr13
unittest.asm (1296): error: Unknown Mnemonic 'trap'.
   1296  05d4					      trap		;previous bcs taken
   1297  05d4				   nbr14
unittest.asm (1298): error: Unknown Mnemonic 'trap'.
   1298  05d4					      trap		;previous beq taken
   1299  05d4		       08	   br14       php
   1300  05d5		       68		      pla
unittest.asm (1301): error: Unknown Mnemonic 'cmp_flag'.
   1301  05d5					      cmp_flag	0	;flags off except break (pushed by sw) + reserved?
unittest.asm (1302): error: Unknown Mnemonic 'trap_ne'.
   1302  05d5					      trap_ne
   1303  05d6							;crosscheck flags
unittest.asm (1304): error: Unknown Mnemonic 'set_stat'.
   1304  05d6					      set_stat	zero
   1305  05d6		       d0 ff		      bne	brzs1
   1306  05d8		       f0 ff		      beq	brzs2
   1307  05da				   brzs1
unittest.asm (1308): error: Unknown Mnemonic 'trap'.
   1308  05da					      trap		;branch zero/non zero
   1309  05da		       b0 ff	   brzs2      bcs	brzs3
   1310  05dc		       90 ff		      bcc	brzs4
   1311  05de				   brzs3
unittest.asm (1312): error: Unknown Mnemonic 'trap'.
   1312  05de					      trap		;branch carry/no carry
   1313  05de		       30 ff	   brzs4      bmi	brzs5
   1314  05e0		       10 ff		      bpl	brzs6
   1315  05e2				   brzs5
unittest.asm (1316): error: Unknown Mnemonic 'trap'.
   1316  05e2					      trap		;branch minus/plus
   1317  05e2		       70 ff	   brzs6      bvs	brzs7
   1318  05e4		       50 ff		      bvc	brzs8
   1319  05e6				   brzs7
unittest.asm (1320): error: Unknown Mnemonic 'trap'.
   1320  05e6					      trap		;branch overflow/no overflow
   1321  05e6				   brzs8
unittest.asm (1322): error: Unknown Mnemonic 'set_stat'.
   1322  05e6					      set_stat	carry
   1323  05e6		       f0 ff		      beq	brcs1
   1324  05e8		       d0 ff		      bne	brcs2
   1325  05ea				   brcs1
unittest.asm (1326): error: Unknown Mnemonic 'trap'.
   1326  05ea					      trap		;branch zero/non zero
   1327  05ea		       90 ff	   brcs2      bcc	brcs3
   1328  05ec		       b0 ff		      bcs	brcs4
   1329  05ee				   brcs3
unittest.asm (1330): error: Unknown Mnemonic 'trap'.
   1330  05ee					      trap		;branch carry/no carry
   1331  05ee		       30 ff	   brcs4      bmi	brcs5
   1332  05f0		       10 ff		      bpl	brcs6
   1333  05f2				   brcs5
unittest.asm (1334): error: Unknown Mnemonic 'trap'.
   1334  05f2					      trap		;branch minus/plus
   1335  05f2		       70 ff	   brcs6      bvs	brcs7
   1336  05f4		       50 ff		      bvc	brcs8
   1337  05f6				   brcs7
unittest.asm (1338): error: Unknown Mnemonic 'trap'.
   1338  05f6					      trap		;branch overflow/no overflow
   1339  05f6
   1340  05f6				   brcs8
unittest.asm (1341): error: Unknown Mnemonic 'set_stat'.
   1341  05f6					      set_stat	minus
   1342  05f6		       f0 ff		      beq	brmi1
   1343  05f8		       d0 ff		      bne	brmi2
   1344  05fa				   brmi1
unittest.asm (1345): error: Unknown Mnemonic 'trap'.
   1345  05fa					      trap		;branch zero/non zero
   1346  05fa		       b0 ff	   brmi2      bcs	brmi3
   1347  05fc		       90 ff		      bcc	brmi4
   1348  05fe				   brmi3
unittest.asm (1349): error: Unknown Mnemonic 'trap'.
   1349  05fe					      trap		;branch carry/no carry
   1350  05fe		       10 ff	   brmi4      bpl	brmi5
   1351  0600		       30 ff		      bmi	brmi6
   1352  0602				   brmi5
unittest.asm (1353): error: Unknown Mnemonic 'trap'.
   1353  0602					      trap		;branch minus/plus
   1354  0602		       70 ff	   brmi6      bvs	brmi7
   1355  0604		       50 ff		      bvc	brmi8
   1356  0606				   brmi7
unittest.asm (1357): error: Unknown Mnemonic 'trap'.
   1357  0606					      trap		;branch overflow/no overflow
   1358  0606				   brmi8
unittest.asm (1359): error: Unknown Mnemonic 'set_stat'.
   1359  0606					      set_stat	overfl
   1360  0606		       f0 ff		      beq	brvs1
   1361  0608		       d0 ff		      bne	brvs2
   1362  060a				   brvs1
unittest.asm (1363): error: Unknown Mnemonic 'trap'.
   1363  060a					      trap		;branch zero/non zero
   1364  060a		       b0 ff	   brvs2      bcs	brvs3
   1365  060c		       90 ff		      bcc	brvs4
   1366  060e				   brvs3
unittest.asm (1367): error: Unknown Mnemonic 'trap'.
   1367  060e					      trap		;branch carry/no carry
   1368  060e		       30 ff	   brvs4      bmi	brvs5
   1369  0610		       10 ff		      bpl	brvs6
   1370  0612				   brvs5
unittest.asm (1371): error: Unknown Mnemonic 'trap'.
   1371  0612					      trap		;branch minus/plus
   1372  0612		       50 ff	   brvs6      bvc	brvs7
   1373  0614		       70 ff		      bvs	brvs8
   1374  0616				   brvs7
unittest.asm (1375): error: Unknown Mnemonic 'trap'.
   1375  0616					      trap		;branch overflow/no overflow
   1376  0616				   brvs8
unittest.asm (1377): error: Unknown Mnemonic 'set_stat'.
   1377  0616					      set_stat	$ff-zero
   1378  0616		       f0 ff		      beq	brzc1
   1379  0618		       d0 ff		      bne	brzc2
   1380  061a				   brzc1
unittest.asm (1381): error: Unknown Mnemonic 'trap'.
   1381  061a					      trap		;branch zero/non zero
   1382  061a		       90 ff	   brzc2      bcc	brzc3
   1383  061c		       b0 ff		      bcs	brzc4
   1384  061e				   brzc3
unittest.asm (1385): error: Unknown Mnemonic 'trap'.
   1385  061e					      trap		;branch carry/no carry
   1386  061e		       10 ff	   brzc4      bpl	brzc5
   1387  0620		       30 ff		      bmi	brzc6
   1388  0622				   brzc5
unittest.asm (1389): error: Unknown Mnemonic 'trap'.
   1389  0622					      trap		;branch minus/plus
   1390  0622		       50 ff	   brzc6      bvc	brzc7
   1391  0624		       70 ff		      bvs	brzc8
   1392  0626				   brzc7
unittest.asm (1393): error: Unknown Mnemonic 'trap'.
   1393  0626					      trap		;branch overflow/no overflow
   1394  0626				   brzc8
unittest.asm (1395): error: Unknown Mnemonic 'set_stat'.
   1395  0626					      set_stat	$ff-carry
   1396  0626		       d0 ff		      bne	brcc1
   1397  0628		       f0 ff		      beq	brcc2
   1398  062a				   brcc1
unittest.asm (1399): error: Unknown Mnemonic 'trap'.
   1399  062a					      trap		;branch zero/non zero
   1400  062a		       b0 ff	   brcc2      bcs	brcc3
   1401  062c		       90 ff		      bcc	brcc4
   1402  062e				   brcc3
unittest.asm (1403): error: Unknown Mnemonic 'trap'.
   1403  062e					      trap		;branch carry/no carry
   1404  062e		       10 ff	   brcc4      bpl	brcc5
   1405  0630		       30 ff		      bmi	brcc6
   1406  0632				   brcc5
unittest.asm (1407): error: Unknown Mnemonic 'trap'.
   1407  0632					      trap		;branch minus/plus
   1408  0632		       50 ff	   brcc6      bvc	brcc7
   1409  0634		       70 ff		      bvs	brcc8
   1410  0636				   brcc7
unittest.asm (1411): error: Unknown Mnemonic 'trap'.
   1411  0636					      trap		;branch overflow/no overflow
   1412  0636				   brcc8
unittest.asm (1413): error: Unknown Mnemonic 'set_stat'.
   1413  0636					      set_stat	$ff-minus
   1414  0636		       d0 ff		      bne	brpl1
   1415  0638		       f0 ff		      beq	brpl2
   1416  063a				   brpl1
unittest.asm (1417): error: Unknown Mnemonic 'trap'.
   1417  063a					      trap		;branch zero/non zero
   1418  063a		       90 ff	   brpl2      bcc	brpl3
   1419  063c		       b0 ff		      bcs	brpl4
   1420  063e				   brpl3
unittest.asm (1421): error: Unknown Mnemonic 'trap'.
   1421  063e					      trap		;branch carry/no carry
   1422  063e		       30 ff	   brpl4      bmi	brpl5
   1423  0640		       10 ff		      bpl	brpl6
   1424  0642				   brpl5
unittest.asm (1425): error: Unknown Mnemonic 'trap'.
   1425  0642					      trap		;branch minus/plus
   1426  0642		       50 ff	   brpl6      bvc	brpl7
   1427  0644		       70 ff		      bvs	brpl8
   1428  0646				   brpl7
unittest.asm (1429): error: Unknown Mnemonic 'trap'.
   1429  0646					      trap		;branch overflow/no overflow
   1430  0646				   brpl8
unittest.asm (1431): error: Unknown Mnemonic 'set_stat'.
   1431  0646					      set_stat	$ff-overfl
   1432  0646		       d0 ff		      bne	brvc1
   1433  0648		       f0 ff		      beq	brvc2
   1434  064a				   brvc1
unittest.asm (1435): error: Unknown Mnemonic 'trap'.
   1435  064a					      trap		;branch zero/non zero
   1436  064a		       90 ff	   brvc2      bcc	brvc3
   1437  064c		       b0 ff		      bcs	brvc4
   1438  064e				   brvc3
unittest.asm (1439): error: Unknown Mnemonic 'trap'.
   1439  064e					      trap		;branch carry/no carry
   1440  064e		       10 ff	   brvc4      bpl	brvc5
   1441  0650		       30 ff		      bmi	brvc6
   1442  0652				   brvc5
unittest.asm (1443): error: Unknown Mnemonic 'trap'.
   1443  0652					      trap		;branch minus/plus
   1444  0652		       70 ff	   brvc6      bvs	brvc7
   1445  0654		       50 ff		      bvc	brvc8
   1446  0656				   brvc7
unittest.asm (1447): error: Unknown Mnemonic 'trap'.
   1447  0656					      trap		;branch overflow/no overflow
   1448  0656				   brvc8
unittest.asm (1449): error: Unknown Mnemonic 'next_test'.
   1449  0656					      next_test
   1450  0656
   1451  0656							; test PHA does not alter flags or accumulator but PLA does
   1452  0656		       a2 55		      ldx	#$55	;x & y protected
   1453  0658		       a0 aa		      ldy	#$aa
unittest.asm (1454): error: Unknown Mnemonic 'set_a'.
   1454  0658					      set_a	1,$ff	;push
   1455  065a		       48		      pha
unittest.asm (1456): error: Unknown Mnemonic 'tst_a'.
   1456  065a					      tst_a	1,$ff
unittest.asm (1457): error: Unknown Mnemonic 'set_a'.
   1457  065a					      set_a	0,0
   1458  065b		       48		      pha
unittest.asm (1459): error: Unknown Mnemonic 'tst_a'.
   1459  065b					      tst_a	0,0
unittest.asm (1460): error: Unknown Mnemonic 'set_a'.
   1460  065b					      set_a	$ff,$ff
   1461  065c		       48		      pha
unittest.asm (1462): error: Unknown Mnemonic 'tst_a'.
   1462  065c					      tst_a	$ff,$ff
unittest.asm (1463): error: Unknown Mnemonic 'set_a'.
   1463  065c					      set_a	1,0
   1464  065d		       48		      pha
unittest.asm (1465): error: Unknown Mnemonic 'tst_a'.
   1465  065d					      tst_a	1,0
unittest.asm (1466): error: Unknown Mnemonic 'set_a'.
   1466  065d					      set_a	0,$ff
   1467  065e		       48		      pha
unittest.asm (1468): error: Unknown Mnemonic 'tst_a'.
   1468  065e					      tst_a	0,$ff
unittest.asm (1469): error: Unknown Mnemonic 'set_a'.
   1469  065e					      set_a	$ff,0
   1470  065f		       48		      pha
unittest.asm (1471): error: Unknown Mnemonic 'tst_a'.
   1471  065f					      tst_a	$ff,0
unittest.asm (1472): error: Unknown Mnemonic 'set_a'.
   1472  065f					      set_a	0,$ff	;pull
   1473  0660		       68		      pla
unittest.asm (1474): error: Unknown Mnemonic 'tst_a'.
   1474  0660					      tst_a	$ff,$ff-zero
unittest.asm (1475): error: Unknown Mnemonic 'set_a'.
   1475  0660					      set_a	$ff,0
   1476  0661		       68		      pla
unittest.asm (1477): error: Unknown Mnemonic 'tst_a'.
   1477  0661					      tst_a	0,zero
unittest.asm (1478): error: Unknown Mnemonic 'set_a'.
   1478  0661					      set_a	$fe,$ff
   1479  0662		       68		      pla
unittest.asm (1480): error: Unknown Mnemonic 'tst_a'.
   1480  0662					      tst_a	1,$ff-zero-minus
unittest.asm (1481): error: Unknown Mnemonic 'set_a'.
   1481  0662					      set_a	0,0
   1482  0663		       68		      pla
unittest.asm (1483): error: Unknown Mnemonic 'tst_a'.
   1483  0663					      tst_a	$ff,minus
unittest.asm (1484): error: Unknown Mnemonic 'set_a'.
   1484  0663					      set_a	$ff,$ff
   1485  0664		       68		      pla
unittest.asm (1486): error: Unknown Mnemonic 'tst_a'.
   1486  0664					      tst_a	0,$ff-minus
unittest.asm (1487): error: Unknown Mnemonic 'set_a'.
   1487  0664					      set_a	$fe,0
   1488  0665		       68		      pla
unittest.asm (1489): error: Unknown Mnemonic 'tst_a'.
   1489  0665					      tst_a	1,0
   1490  0666		       e0 55		      cpx	#$55	;x & y unchanged?
unittest.asm (1491): error: Unknown Mnemonic 'trap_ne'.
   1491  0666					      trap_ne
   1492  0668		       c0 aa		      cpy	#$aa
unittest.asm (1493): error: Unknown Mnemonic 'trap_ne'.
   1493  0668					      trap_ne
unittest.asm (1494): error: Unknown Mnemonic 'next_test'.
   1494  0668					      next_test
   1495  066a
   1496  066a							; partial pretest EOR #
unittest.asm (1497): error: Unknown Mnemonic 'set_a'.
   1497  066a					      set_a	$3c,0
   1498  066a		       49 c3		      eor	#$c3
unittest.asm (1499): error: Unknown Mnemonic 'tst_a'.
   1499  066a					      tst_a	$ff,fn
unittest.asm (1500): error: Unknown Mnemonic 'set_a'.
   1500  066a					      set_a	$c3,0
   1501  066c		       49 c3		      eor	#$c3
unittest.asm (1502): error: Unknown Mnemonic 'tst_a'.
   1502  066c					      tst_a	0,fz
unittest.asm (1503): error: Unknown Mnemonic 'next_test'.
   1503  066c					      next_test
   1504  066e
   1505  066e							; PC modifying instructions except branches (NOP, JMP, JSR, RTS, BRK, RTI)
   1506  066e							; testing NOP
   1507  066e		       a2 24		      ldx	#$24
   1508  0670		       a0 42		      ldy	#$42
unittest.asm (1509): error: Unknown Mnemonic 'set_a'.
   1509  0670					      set_a	$18,0
   1510  0672		       ea		      nop
unittest.asm (1511): error: Unknown Mnemonic 'tst_a'.
   1511  0672					      tst_a	$18,0
   1512  0673		       e0 24		      cpx	#$24
unittest.asm (1513): error: Unknown Mnemonic 'trap_ne'.
   1513  0673					      trap_ne
   1514  0675		       c0 42		      cpy	#$42
unittest.asm (1515): error: Unknown Mnemonic 'trap_ne'.
   1515  0675					      trap_ne
   1516  0677		       a2 db		      ldx	#$db
   1517  0679		       a0 bd		      ldy	#$bd
unittest.asm (1518): error: Unknown Mnemonic 'set_a'.
   1518  0679					      set_a	$e7,$ff
   1519  067b		       ea		      nop
unittest.asm (1520): error: Unknown Mnemonic 'tst_a'.
   1520  067b					      tst_a	$e7,$ff
   1521  067c		       e0 db		      cpx	#$db
unittest.asm (1522): error: Unknown Mnemonic 'trap_ne'.
   1522  067c					      trap_ne
   1523  067e		       c0 bd		      cpy	#$bd
unittest.asm (1524): error: Unknown Mnemonic 'trap_ne'.
   1524  067e					      trap_ne
unittest.asm (1525): error: Unknown Mnemonic 'next_test'.
   1525  067e					      next_test
   1526  0680
   1527  0680							; jump absolute
unittest.asm (1528): error: Unknown Mnemonic 'set_stat'.
   1528  0680					      set_stat	$0
unittest.asm (1529): error: Syntax Error '#'F' '.
   1529  0680		       a9 20		      lda	#'F'
unittest.asm (1530): error: Syntax Error '#'A' '.
   1530  0682		       a2 20		      ldx	#'A'
unittest.asm (1531): error: Syntax Error '#'R' '.
   1531  0684		       a0 20		      ldy	#'R'	;N=0, V=0, Z=0, C=0
   1532  0686		       4c 00 00 	      jmp	test_far
   1533  0689		       ea		      nop
   1534  068a		       ea		      nop
unittest.asm (1535): error: Unknown Mnemonic 'trap_ne'.
   1535  068a					      trap_ne		;runover protection
   1536  068b		       e8		      inx
   1537  068c		       e8		      inx
   1538  068d				   far_ret
unittest.asm (1539): error: Unknown Mnemonic 'trap_eq'.
   1539  068d					      trap_eq		;returned flags OK?
unittest.asm (1540): error: Unknown Mnemonic 'trap_pl'.
   1540  068d					      trap_pl
unittest.asm (1541): error: Unknown Mnemonic 'trap_cc'.
   1541  068d					      trap_cc
unittest.asm (1542): error: Unknown Mnemonic 'trap_vc'.
   1542  068d					      trap_vc
unittest.asm (1543): error: Syntax Error '#('F'^$aa)'.
   1543  068d		       c9 aa		      cmp	#('F'^$aa)	;returned registers OK?
unittest.asm (1544): error: Unknown Mnemonic 'trap_ne'.
   1544  068d					      trap_ne
unittest.asm (1545): error: Syntax Error '#('A'+1)'.
   1545  068f		       e0 01		      cpx	#('A'+1)
unittest.asm (1546): error: Unknown Mnemonic 'trap_ne'.
   1546  068f					      trap_ne
unittest.asm (1547): error: Syntax Error '#('R'-3)'.
   1547  0691		       c0 03		      cpy	#('R'-3)
unittest.asm (1548): error: Unknown Mnemonic 'trap_ne'.
   1548  0691					      trap_ne
   1549  0693		       ca		      dex
   1550  0694		       c8		      iny
   1551  0695		       c8		      iny
   1552  0696		       c8		      iny
   1553  0697		       49 aa		      eor	#$aa	;N=0, V=1, Z=0, C=1
   1554  0699		       4c 00 00 	      jmp	test_near
   1555  069c		       ea		      nop
   1556  069d		       ea		      nop
unittest.asm (1557): error: Unknown Mnemonic 'trap_ne'.
   1557  069d					      trap_ne		;runover protection
   1558  069e		       e8		      inx
   1559  069f		       e8		      inx
   1560  06a0				   test_near
unittest.asm (1561): error: Unknown Mnemonic 'trap_eq'.
   1561  06a0					      trap_eq		;passed flags OK?
unittest.asm (1562): error: Unknown Mnemonic 'trap_mi'.
   1562  06a0					      trap_mi
unittest.asm (1563): error: Unknown Mnemonic 'trap_cc'.
   1563  06a0					      trap_cc
unittest.asm (1564): error: Unknown Mnemonic 'trap_vc'.
   1564  06a0					      trap_vc
unittest.asm (1565): error: Syntax Error '#'F' '.
   1565  06a0		       c9 20		      cmp	#'F'	;passed registers OK?
unittest.asm (1566): error: Unknown Mnemonic 'trap_ne'.
   1566  06a0					      trap_ne
unittest.asm (1567): error: Syntax Error '#'A' '.
   1567  06a2		       e0 20		      cpx	#'A'
unittest.asm (1568): error: Unknown Mnemonic 'trap_ne'.
   1568  06a2					      trap_ne
unittest.asm (1569): error: Syntax Error '#'R' '.
   1569  06a4		       c0 20		      cpy	#'R'
unittest.asm (1570): error: Unknown Mnemonic 'trap_ne'.
   1570  06a4					      trap_ne
unittest.asm (1571): error: Unknown Mnemonic 'next_test'.
   1571  06a4					      next_test
   1572  06a6
   1573  06a6							; jump indirect
unittest.asm (1574): error: Unknown Mnemonic 'set_stat'.
   1574  06a6					      set_stat	0
unittest.asm (1575): error: Syntax Error '#'I' '.
   1575  06a6		       a9 20		      lda	#'I'
unittest.asm (1576): error: Syntax Error '#'N' '.
   1576  06a8		       a2 20		      ldx	#'N'
unittest.asm (1577): error: Syntax Error '#'D' '.
   1577  06aa		       a0 20		      ldy	#'D'	;N=0, V=0, Z=0, C=0
   1578  06ac		       6c 00 00 	      jmp	(ptr_tst_ind)
   1579  06af		       ea		      nop
unittest.asm (1580): error: Unknown Mnemonic 'trap_ne'.
   1580  06af					      trap_ne		;runover protection
   1581  06b0		       88		      dey
   1582  06b1		       88		      dey
   1583  06b2				   ind_ret
   1584  06b2		       08		      php		;either SP or Y count will fail, if we do not hit
   1585  06b3		       88		      dey
   1586  06b4		       88		      dey
   1587  06b5		       88		      dey
   1588  06b6		       28		      plp
unittest.asm (1589): error: Unknown Mnemonic 'trap_eq'.
   1589  06b6					      trap_eq		;returned flags OK?
unittest.asm (1590): error: Unknown Mnemonic 'trap_pl'.
   1590  06b6					      trap_pl
unittest.asm (1591): error: Unknown Mnemonic 'trap_cc'.
   1591  06b6					      trap_cc
unittest.asm (1592): error: Unknown Mnemonic 'trap_vc'.
   1592  06b6					      trap_vc
unittest.asm (1593): error: Syntax Error '#('I'^$aa)'.
   1593  06b7		       c9 aa		      cmp	#('I'^$aa)	;returned registers OK?
unittest.asm (1594): error: Unknown Mnemonic 'trap_ne'.
   1594  06b7					      trap_ne
unittest.asm (1595): error: Syntax Error '#('N'+1)'.
   1595  06b9		       e0 01		      cpx	#('N'+1)
unittest.asm (1596): error: Unknown Mnemonic 'trap_ne'.
   1596  06b9					      trap_ne
unittest.asm (1597): error: Syntax Error '#('D'-6)'.
   1597  06bb		       c0 06		      cpy	#('D'-6)
unittest.asm (1598): error: Unknown Mnemonic 'trap_ne'.
   1598  06bb					      trap_ne
   1599  06bd		       ba		      tsx		;SP check
   1600  06be		       e0 ff		      cpx	#$ff
unittest.asm (1601): error: Unknown Mnemonic 'trap_ne'.
   1601  06be					      trap_ne
unittest.asm (1602): error: Unknown Mnemonic 'next_test'.
   1602  06be					      next_test
   1603  06c0
   1604  06c0							; jump subroutine & return from subroutine
unittest.asm (1605): error: Unknown Mnemonic 'set_stat'.
   1605  06c0					      set_stat	0
unittest.asm (1606): error: Syntax Error '#'J' '.
   1606  06c0		       a9 20		      lda	#'J'
unittest.asm (1607): error: Syntax Error '#'S' '.
   1607  06c2		       a2 20		      ldx	#'S'
unittest.asm (1608): error: Syntax Error '#'R' '.
   1608  06c4		       a0 20		      ldy	#'R'	;N=0, V=0, Z=0, C=0
   1609  06c6		       20 00 00 	      jsr	test_jsr
   1610  06c6		       06 c8	   jsr_ret    =	*-1	;last address of jsr = return address
   1611  06c9		       08		      php		;either SP or Y count will fail, if we do not hit
   1612  06ca		       88		      dey
   1613  06cb		       88		      dey
   1614  06cc		       88		      dey
   1615  06cd		       28		      plp
unittest.asm (1616): error: Unknown Mnemonic 'trap_eq'.
   1616  06cd					      trap_eq		;returned flags OK?
unittest.asm (1617): error: Unknown Mnemonic 'trap_pl'.
   1617  06cd					      trap_pl
unittest.asm (1618): error: Unknown Mnemonic 'trap_cc'.
   1618  06cd					      trap_cc
unittest.asm (1619): error: Unknown Mnemonic 'trap_vc'.
   1619  06cd					      trap_vc
unittest.asm (1620): error: Syntax Error '#('J'^$aa)'.
   1620  06ce		       c9 aa		      cmp	#('J'^$aa)	;returned registers OK?
unittest.asm (1621): error: Unknown Mnemonic 'trap_ne'.
   1621  06ce					      trap_ne
unittest.asm (1622): error: Syntax Error '#('S'+1)'.
   1622  06d0		       e0 01		      cpx	#('S'+1)
unittest.asm (1623): error: Unknown Mnemonic 'trap_ne'.
   1623  06d0					      trap_ne
unittest.asm (1624): error: Syntax Error '#('R'-6)'.
   1624  06d2		       c0 06		      cpy	#('R'-6)
unittest.asm (1625): error: Unknown Mnemonic 'trap_ne'.
   1625  06d2					      trap_ne
   1626  06d4		       ba		      tsx		;sp?
   1627  06d5		       e0 ff		      cpx	#$ff
unittest.asm (1628): error: Unknown Mnemonic 'trap_ne'.
   1628  06d5					      trap_ne
unittest.asm (1629): error: Unknown Mnemonic 'next_test'.
   1629  06d5					      next_test
   1630  06d7
   1631  06d7							; break & return from interrupt
   1632  06d7				  -	      if	ROM_vectors = 1
   1633  06d7				  -	      load_flag	0	;with interrupts enabled if allowed!
   1634  06d7				  -	      pha
   1635  06d7				  -	      lda	#'B'
   1636  06d7				  -	      ldx	#'R'
   1637  06d7				  -	      ldy	#'K'
   1638  06d7				  -	      plp		;N=0, V=0, Z=0, C=0
   1639  06d7				  -	      brk
   1640  06d7					      else
unittest.asm (1641): error: Syntax Error '#hi brk_ret0'.
   1641  06d7		       a9 00		      lda	#hi brk_ret0	;emulated break
   1642  06d9		       48		      pha
unittest.asm (1643): error: Syntax Error '#lo brk_ret0'.
   1643  06da		       a9 00		      lda	#lo brk_ret0
   1644  06dc		       48		      pha
unittest.asm (1645): error: Unknown Mnemonic 'load_flag'.
   1645  06dc					      load_flag	fao	;set break & unused on stack
   1646  06dd		       48		      pha
unittest.asm (1647): error: Unknown Mnemonic 'load_flag'.
   1647  06dd					      load_flag	intdis	;during interrupt
   1648  06de		       48		      pha
unittest.asm (1649): error: Syntax Error '#'B' '.
   1649  06df		       a9 20		      lda	#'B'
unittest.asm (1650): error: Syntax Error '#'R' '.
   1650  06e1		       a2 20		      ldx	#'R'
unittest.asm (1651): error: Syntax Error '#'K' '.
   1651  06e3		       a0 20		      ldy	#'K'
   1652  06e5		       28		      plp		;N=0, V=0, Z=0, C=0
   1653  06e6		       4c 00 00 	      jmp	irq_trap
   1654  06e9					      endif
   1655  06e9		       88		      dey		;should not be executed
   1656  06ea				   brk_ret0		;address of break return
   1657  06ea		       08		      php		;either SP or Y count will fail, if we do not hit
   1658  06eb		       88		      dey
   1659  06ec		       88		      dey
   1660  06ed		       88		      dey
unittest.asm (1661): error: Syntax Error '#'B'^$aa'.
   1661  06ee		       c9 aa		      cmp	#'B'^$aa	;returned registers OK?
   1662  06f0							;the IRQ vector was never executed if A & X stay unmodified
unittest.asm (1663): error: Unknown Mnemonic 'trap_ne'.
   1663  06f0					      trap_ne
unittest.asm (1664): error: Syntax Error '#'R'+1'.
   1664  06f0		       e0 01		      cpx	#'R'+1
unittest.asm (1665): error: Unknown Mnemonic 'trap_ne'.
   1665  06f0					      trap_ne
unittest.asm (1666): error: Syntax Error '#'K'-6'.
   1666  06f2		       c0 06		      cpy	#'K'-6
unittest.asm (1667): error: Unknown Mnemonic 'trap_ne'.
   1667  06f2					      trap_ne
   1668  06f4		       68		      pla		;returned flags OK (unchanged)?
unittest.asm (1669): error: Unknown Mnemonic 'cmp_flag'.
   1669  06f4					      cmp_flag	0
unittest.asm (1670): error: Unknown Mnemonic 'trap_ne'.
   1670  06f4					      trap_ne
   1671  06f5		       ba		      tsx		;sp?
   1672  06f6		       e0 ff		      cpx	#$ff
unittest.asm (1673): error: Unknown Mnemonic 'trap_ne'.
   1673  06f6					      trap_ne
   1674  06f8				  -	      if	ROM_vectors = 1
   1675  06f8				  -	      load_flag	$ff	;with interrupts disabled if allowed!
   1676  06f8				  -	      pha
   1677  06f8				  -	      lda	#$ff-'B'
   1678  06f8				  -	      ldx	#$ff-'R'
   1679  06f8				  -	      ldy	#$ff-'K'
   1680  06f8				  -	      plp		;N=1, V=1, Z=1, C=1
   1681  06f8				  -	      brk
   1682  06f8					      else
unittest.asm (1683): error: Syntax Error '#hi brk_ret1'.
   1683  06f8		       a9 00		      lda	#hi brk_ret1	;emulated break
   1684  06fa		       48		      pha
unittest.asm (1685): error: Syntax Error '#lo brk_ret1'.
   1685  06fb		       a9 00		      lda	#lo brk_ret1
   1686  06fd		       48		      pha
unittest.asm (1687): error: Unknown Mnemonic 'load_flag'.
   1687  06fd					      load_flag	$ff
   1688  06fe		       48		      pha		;set break & unused on stack
   1689  06ff		       48		      pha		;actual flags
unittest.asm (1690): error: Syntax Error '#$ff-'B' '.
   1690  0700		       a9 22		      lda	#$ff-'B'
unittest.asm (1691): error: Syntax Error '#$ff-'R' '.
   1691  0702		       a2 32		      ldx	#$ff-'R'
unittest.asm (1692): error: Syntax Error '#$ff-'K' '.
   1692  0704		       a0 2b		      ldy	#$ff-'K'
   1693  0706		       28		      plp		;N=1, V=1, Z=1, C=1
   1694  0707		       4c 00 00 	      jmp	irq_trap
   1695  070a					      endif
   1696  070a		       88		      dey		;should not be executed
   1697  070b				   brk_ret1		;address of break return
   1698  070b		       08		      php		;either SP or Y count will fail, if we do not hit
   1699  070c		       88		      dey
   1700  070d		       88		      dey
   1701  070e		       88		      dey
   1702  070f		       c9 4c		      cmp	#($ff-'B')^$aa	;returned registers OK?
   1703  0711							;the IRQ vector was never executed if A & X stay unmodified
unittest.asm (1704): error: Unknown Mnemonic 'trap_ne'.
   1704  0711					      trap_ne
unittest.asm (1705): error: Syntax Error '#$ff-'R'+1'.
   1705  0711		       e0 2a		      cpx	#$ff-'R'+1
unittest.asm (1706): error: Unknown Mnemonic 'trap_ne'.
   1706  0711					      trap_ne
unittest.asm (1707): error: Syntax Error '#$ff-'K'-6'.
   1707  0713		       c0 27		      cpy	#$ff-'K'-6
unittest.asm (1708): error: Unknown Mnemonic 'trap_ne'.
   1708  0713					      trap_ne
   1709  0715		       68		      pla		;returned flags OK (unchanged)?
unittest.asm (1710): error: Unknown Mnemonic 'cmp_flag'.
   1710  0715					      cmp_flag	$ff
unittest.asm (1711): error: Unknown Mnemonic 'trap_ne'.
   1711  0715					      trap_ne
   1712  0716		       ba		      tsx		;sp?
   1713  0717		       e0 ff		      cpx	#$ff
unittest.asm (1714): error: Unknown Mnemonic 'trap_ne'.
   1714  0717					      trap_ne
unittest.asm (1715): error: Unknown Mnemonic 'next_test'.
   1715  0717					      next_test
   1716  0719
   1717  0719							; test set and clear flags CLC CLI CLD CLV SEC SEI SED
unittest.asm (1718): error: Unknown Mnemonic 'set_stat'.
   1718  0719					      set_stat	$ff
   1719  0719		       18		      clc
unittest.asm (1720): error: Unknown Mnemonic 'tst_stat'.
   1720  0719					      tst_stat	$ff-carry
   1721  071a		       38		      sec
unittest.asm (1722): error: Unknown Mnemonic 'tst_stat'.
   1722  071a					      tst_stat	$ff
   1723  071b				  -	      if	I_flag = 3
   1724  071b				  -	      cli
   1725  071b				  -	      tst_stat	$ff-intdis
   1726  071b				  -	      sei
   1727  071b				  -	      tst_stat	$ff
   1728  071b					      endif
   1729  071b		       d8		      cld
unittest.asm (1730): error: Unknown Mnemonic 'tst_stat'.
   1730  071b					      tst_stat	$ff-decmode
   1731  071c		       f8		      sed
unittest.asm (1732): error: Unknown Mnemonic 'tst_stat'.
   1732  071c					      tst_stat	$ff
   1733  071d		       b8		      clv
unittest.asm (1734): error: Unknown Mnemonic 'tst_stat'.
   1734  071d					      tst_stat	$ff-overfl
unittest.asm (1735): error: Unknown Mnemonic 'set_stat'.
   1735  071d					      set_stat	0
unittest.asm (1736): error: Unknown Mnemonic 'tst_stat'.
   1736  071d					      tst_stat	0
   1737  071e		       38		      sec
unittest.asm (1738): error: Unknown Mnemonic 'tst_stat'.
   1738  071e					      tst_stat	carry
   1739  071f		       18		      clc
unittest.asm (1740): error: Unknown Mnemonic 'tst_stat'.
   1740  071f					      tst_stat	0
   1741  0720				  -	      if	I_flag = 3
   1742  0720				  -	      sei
   1743  0720				  -	      tst_stat	intdis
   1744  0720				  -	      cli
   1745  0720				  -	      tst_stat	0
   1746  0720					      endif
   1747  0720		       f8		      sed
unittest.asm (1748): error: Unknown Mnemonic 'tst_stat'.
   1748  0720					      tst_stat	decmode
   1749  0721		       d8		      cld
unittest.asm (1750): error: Unknown Mnemonic 'tst_stat'.
   1750  0721					      tst_stat	0
unittest.asm (1751): error: Unknown Mnemonic 'set_stat'.
   1751  0721					      set_stat	overfl
unittest.asm (1752): error: Unknown Mnemonic 'tst_stat'.
   1752  0721					      tst_stat	overfl
   1753  0722		       b8		      clv
unittest.asm (1754): error: Unknown Mnemonic 'tst_stat'.
   1754  0722					      tst_stat	0
unittest.asm (1755): error: Unknown Mnemonic 'next_test'.
   1755  0722					      next_test
   1756  0723							; testing index register increment/decrement and transfer
   1757  0723							; INX INY DEX DEY TAX TXA TAY TYA
   1758  0723		       a2 fe		      ldx	#$fe
unittest.asm (1759): error: Unknown Mnemonic 'set_stat'.
   1759  0723					      set_stat	$ff
   1760  0725		       e8		      inx		;ff
unittest.asm (1761): error: Unknown Mnemonic 'tst_x'.
   1761  0725					      tst_x	$ff,$ff-zero
   1762  0726		       e8		      inx		;00
unittest.asm (1763): error: Unknown Mnemonic 'tst_x'.
   1763  0726					      tst_x	0,$ff-minus
   1764  0727		       e8		      inx		;01
unittest.asm (1765): error: Unknown Mnemonic 'tst_x'.
   1765  0727					      tst_x	1,$ff-minus-zero
   1766  0728		       ca		      dex		;00
unittest.asm (1767): error: Unknown Mnemonic 'tst_x'.
   1767  0728					      tst_x	0,$ff-minus
   1768  0729		       ca		      dex		;ff
unittest.asm (1769): error: Unknown Mnemonic 'tst_x'.
   1769  0729					      tst_x	$ff,$ff-zero
   1770  072a		       ca		      dex		;fe
unittest.asm (1771): error: Unknown Mnemonic 'set_stat'.
   1771  072a					      set_stat	0
   1772  072b		       e8		      inx		;ff
unittest.asm (1773): error: Unknown Mnemonic 'tst_x'.
   1773  072b					      tst_x	$ff,minus
   1774  072c		       e8		      inx		;00
unittest.asm (1775): error: Unknown Mnemonic 'tst_x'.
   1775  072c					      tst_x	0,zero
   1776  072d		       e8		      inx		;01
unittest.asm (1777): error: Unknown Mnemonic 'tst_x'.
   1777  072d					      tst_x	1,0
   1778  072e		       ca		      dex		;00
unittest.asm (1779): error: Unknown Mnemonic 'tst_x'.
   1779  072e					      tst_x	0,zero
   1780  072f		       ca		      dex		;ff
unittest.asm (1781): error: Unknown Mnemonic 'tst_x'.
   1781  072f					      tst_x	$ff,minus
   1782  0730
   1783  0730		       a0 fe		      ldy	#$fe
unittest.asm (1784): error: Unknown Mnemonic 'set_stat'.
   1784  0730					      set_stat	$ff
   1785  0732		       c8		      iny		;ff
unittest.asm (1786): error: Unknown Mnemonic 'tst_y'.
   1786  0732					      tst_y	$ff,$ff-zero
   1787  0733		       c8		      iny		;00
unittest.asm (1788): error: Unknown Mnemonic 'tst_y'.
   1788  0733					      tst_y	0,$ff-minus
   1789  0734		       c8		      iny		;01
unittest.asm (1790): error: Unknown Mnemonic 'tst_y'.
   1790  0734					      tst_y	1,$ff-minus-zero
   1791  0735		       88		      dey		;00
unittest.asm (1792): error: Unknown Mnemonic 'tst_y'.
   1792  0735					      tst_y	0,$ff-minus
   1793  0736		       88		      dey		;ff
unittest.asm (1794): error: Unknown Mnemonic 'tst_y'.
   1794  0736					      tst_y	$ff,$ff-zero
   1795  0737		       88		      dey		;fe
unittest.asm (1796): error: Unknown Mnemonic 'set_stat'.
   1796  0737					      set_stat	0
   1797  0738		       c8		      iny		;ff
unittest.asm (1798): error: Unknown Mnemonic 'tst_y'.
   1798  0738					      tst_y	$ff,0+minus
   1799  0739		       c8		      iny		;00
unittest.asm (1800): error: Unknown Mnemonic 'tst_y'.
   1800  0739					      tst_y	0,zero
   1801  073a		       c8		      iny		;01
unittest.asm (1802): error: Unknown Mnemonic 'tst_y'.
   1802  073a					      tst_y	1,0
   1803  073b		       88		      dey		;00
unittest.asm (1804): error: Unknown Mnemonic 'tst_y'.
   1804  073b					      tst_y	0,zero
   1805  073c		       88		      dey		;ff
unittest.asm (1806): error: Unknown Mnemonic 'tst_y'.
   1806  073c					      tst_y	$ff,minus
   1807  073d
   1808  073d		       a2 ff		      ldx	#$ff
unittest.asm (1809): error: Unknown Mnemonic 'set_stat'.
   1809  073d					      set_stat	$ff
   1810  073f		       8a		      txa
unittest.asm (1811): error: Unknown Mnemonic 'tst_a'.
   1811  073f					      tst_a	$ff,$ff-zero
   1812  0740		       08		      php
   1813  0741		       e8		      inx		;00
   1814  0742		       28		      plp
   1815  0743		       8a		      txa
unittest.asm (1816): error: Unknown Mnemonic 'tst_a'.
   1816  0743					      tst_a	0,$ff-minus
   1817  0744		       08		      php
   1818  0745		       e8		      inx		;01
   1819  0746		       28		      plp
   1820  0747		       8a		      txa
unittest.asm (1821): error: Unknown Mnemonic 'tst_a'.
   1821  0747					      tst_a	1,$ff-minus-zero
unittest.asm (1822): error: Unknown Mnemonic 'set_stat'.
   1822  0747					      set_stat	0
   1823  0748		       8a		      txa
unittest.asm (1824): error: Unknown Mnemonic 'tst_a'.
   1824  0748					      tst_a	1,0
   1825  0749		       08		      php
   1826  074a		       ca		      dex		;00
   1827  074b		       28		      plp
   1828  074c		       8a		      txa
unittest.asm (1829): error: Unknown Mnemonic 'tst_a'.
   1829  074c					      tst_a	0,zero
   1830  074d		       08		      php
   1831  074e		       ca		      dex		;ff
   1832  074f		       28		      plp
   1833  0750		       8a		      txa
unittest.asm (1834): error: Unknown Mnemonic 'tst_a'.
   1834  0750					      tst_a	$ff,minus
   1835  0751
   1836  0751		       a0 ff		      ldy	#$ff
unittest.asm (1837): error: Unknown Mnemonic 'set_stat'.
   1837  0751					      set_stat	$ff
   1838  0753		       98		      tya
unittest.asm (1839): error: Unknown Mnemonic 'tst_a'.
   1839  0753					      tst_a	$ff,$ff-zero
   1840  0754		       08		      php
   1841  0755		       c8		      iny		;00
   1842  0756		       28		      plp
   1843  0757		       98		      tya
unittest.asm (1844): error: Unknown Mnemonic 'tst_a'.
   1844  0757					      tst_a	0,$ff-minus
   1845  0758		       08		      php
   1846  0759		       c8		      iny		;01
   1847  075a		       28		      plp
   1848  075b		       98		      tya
unittest.asm (1849): error: Unknown Mnemonic 'tst_a'.
   1849  075b					      tst_a	1,$ff-minus-zero
unittest.asm (1850): error: Unknown Mnemonic 'set_stat'.
   1850  075b					      set_stat	0
   1851  075c		       98		      tya
unittest.asm (1852): error: Unknown Mnemonic 'tst_a'.
   1852  075c					      tst_a	1,0
   1853  075d		       08		      php
   1854  075e		       88		      dey		;00
   1855  075f		       28		      plp
   1856  0760		       98		      tya
unittest.asm (1857): error: Unknown Mnemonic 'tst_a'.
   1857  0760					      tst_a	0,zero
   1858  0761		       08		      php
   1859  0762		       88		      dey		;ff
   1860  0763		       28		      plp
   1861  0764		       98		      tya
unittest.asm (1862): error: Unknown Mnemonic 'tst_a'.
   1862  0764					      tst_a	$ff,minus
   1863  0765
unittest.asm (1864): error: Unknown Mnemonic 'load_flag'.
   1864  0765					      load_flag	$ff
   1865  0765		       48		      pha
   1866  0766		       a2 ff		      ldx	#$ff	;ff
   1867  0768		       8a		      txa
   1868  0769		       28		      plp
   1869  076a		       a8		      tay
unittest.asm (1870): error: Unknown Mnemonic 'tst_y'.
   1870  076a					      tst_y	$ff,$ff-zero
   1871  076b		       08		      php
   1872  076c		       e8		      inx		;00
   1873  076d		       8a		      txa
   1874  076e		       28		      plp
   1875  076f		       a8		      tay
unittest.asm (1876): error: Unknown Mnemonic 'tst_y'.
   1876  076f					      tst_y	0,$ff-minus
   1877  0770		       08		      php
   1878  0771		       e8		      inx		;01
   1879  0772		       8a		      txa
   1880  0773		       28		      plp
   1881  0774		       a8		      tay
unittest.asm (1882): error: Unknown Mnemonic 'tst_y'.
   1882  0774					      tst_y	1,$ff-minus-zero
unittest.asm (1883): error: Unknown Mnemonic 'load_flag'.
   1883  0774					      load_flag	0
   1884  0775		       48		      pha
   1885  0776		       a9 00		      lda	#0
   1886  0778		       8a		      txa
   1887  0779		       28		      plp
   1888  077a		       a8		      tay
unittest.asm (1889): error: Unknown Mnemonic 'tst_y'.
   1889  077a					      tst_y	1,0
   1890  077b		       08		      php
   1891  077c		       ca		      dex		;00
   1892  077d		       8a		      txa
   1893  077e		       28		      plp
   1894  077f		       a8		      tay
unittest.asm (1895): error: Unknown Mnemonic 'tst_y'.
   1895  077f					      tst_y	0,zero
   1896  0780		       08		      php
   1897  0781		       ca		      dex		;ff
   1898  0782		       8a		      txa
   1899  0783		       28		      plp
   1900  0784		       a8		      tay
unittest.asm (1901): error: Unknown Mnemonic 'tst_y'.
   1901  0784					      tst_y	$ff,minus
   1902  0785
   1903  0785
unittest.asm (1904): error: Unknown Mnemonic 'load_flag'.
   1904  0785					      load_flag	$ff
   1905  0785		       48		      pha
   1906  0786		       a0 ff		      ldy	#$ff	;ff
   1907  0788		       98		      tya
   1908  0789		       28		      plp
   1909  078a		       aa		      tax
unittest.asm (1910): error: Unknown Mnemonic 'tst_x'.
   1910  078a					      tst_x	$ff,$ff-zero
   1911  078b		       08		      php
   1912  078c		       c8		      iny		;00
   1913  078d		       98		      tya
   1914  078e		       28		      plp
   1915  078f		       aa		      tax
unittest.asm (1916): error: Unknown Mnemonic 'tst_x'.
   1916  078f					      tst_x	0,$ff-minus
   1917  0790		       08		      php
   1918  0791		       c8		      iny		;01
   1919  0792		       98		      tya
   1920  0793		       28		      plp
   1921  0794		       aa		      tax
unittest.asm (1922): error: Unknown Mnemonic 'tst_x'.
   1922  0794					      tst_x	1,$ff-minus-zero
unittest.asm (1923): error: Unknown Mnemonic 'load_flag'.
   1923  0794					      load_flag	0
   1924  0795		       48		      pha
   1925  0796		       a9 00		      lda	#0	;preset status
   1926  0798		       98		      tya
   1927  0799		       28		      plp
   1928  079a		       aa		      tax
unittest.asm (1929): error: Unknown Mnemonic 'tst_x'.
   1929  079a					      tst_x	1,0
   1930  079b		       08		      php
   1931  079c		       88		      dey		;00
   1932  079d		       98		      tya
   1933  079e		       28		      plp
   1934  079f		       aa		      tax
unittest.asm (1935): error: Unknown Mnemonic 'tst_x'.
   1935  079f					      tst_x	0,zero
   1936  07a0		       08		      php
   1937  07a1		       88		      dey		;ff
   1938  07a2		       98		      tya
   1939  07a3		       28		      plp
   1940  07a4		       aa		      tax
unittest.asm (1941): error: Unknown Mnemonic 'tst_x'.
   1941  07a4					      tst_x	$ff,minus
unittest.asm (1942): error: Unknown Mnemonic 'next_test'.
   1942  07a4					      next_test
   1943  07a5
   1944  07a5							;TSX sets NZ - TXS does not
   1945  07a5							;  This section also tests for proper stack wrap around.
   1946  07a5		       a2 01		      ldx	#1	;01
unittest.asm (1947): error: Unknown Mnemonic 'set_stat'.
   1947  07a5					      set_stat	$ff
   1948  07a7		       9a		      txs
   1949  07a8		       08		      php
   1950  07a9		       ad 01 01 	      lda	$101
unittest.asm (1951): error: Unknown Mnemonic 'cmp_flag'.
   1951  07a9					      cmp_flag	$ff
unittest.asm (1952): error: Unknown Mnemonic 'trap_ne'.
   1952  07a9					      trap_ne
unittest.asm (1953): error: Unknown Mnemonic 'set_stat'.
   1953  07a9					      set_stat	0
   1954  07ac		       9a		      txs
   1955  07ad		       08		      php
   1956  07ae		       ad 01 01 	      lda	$101
unittest.asm (1957): error: Unknown Mnemonic 'cmp_flag'.
   1957  07ae					      cmp_flag	0
unittest.asm (1958): error: Unknown Mnemonic 'trap_ne'.
   1958  07ae					      trap_ne
   1959  07b1		       ca		      dex		;00
unittest.asm (1960): error: Unknown Mnemonic 'set_stat'.
   1960  07b1					      set_stat	$ff
   1961  07b2		       9a		      txs
   1962  07b3		       08		      php
   1963  07b4		       ad 00 01 	      lda	$100
unittest.asm (1964): error: Unknown Mnemonic 'cmp_flag'.
   1964  07b4					      cmp_flag	$ff
unittest.asm (1965): error: Unknown Mnemonic 'trap_ne'.
   1965  07b4					      trap_ne
unittest.asm (1966): error: Unknown Mnemonic 'set_stat'.
   1966  07b4					      set_stat	0
   1967  07b7		       9a		      txs
   1968  07b8		       08		      php
   1969  07b9		       ad 00 01 	      lda	$100
unittest.asm (1970): error: Unknown Mnemonic 'cmp_flag'.
   1970  07b9					      cmp_flag	0
unittest.asm (1971): error: Unknown Mnemonic 'trap_ne'.
   1971  07b9					      trap_ne
   1972  07bc		       ca		      dex		;ff
unittest.asm (1973): error: Unknown Mnemonic 'set_stat'.
   1973  07bc					      set_stat	$ff
   1974  07bd		       9a		      txs
   1975  07be		       08		      php
   1976  07bf		       ad ff 01 	      lda	$1ff
unittest.asm (1977): error: Unknown Mnemonic 'cmp_flag'.
   1977  07bf					      cmp_flag	$ff
unittest.asm (1978): error: Unknown Mnemonic 'trap_ne'.
   1978  07bf					      trap_ne
unittest.asm (1979): error: Unknown Mnemonic 'set_stat'.
   1979  07bf					      set_stat	0
   1980  07c2		       9a		      txs
   1981  07c3		       08		      php
   1982  07c4		       ad ff 01 	      lda	$1ff
unittest.asm (1983): error: Unknown Mnemonic 'cmp_flag'.
   1983  07c4					      cmp_flag	0
   1984  07c7
   1985  07c7		       a2 01		      ldx	#1
   1986  07c9		       9a		      txs		;sp=01
unittest.asm (1987): error: Unknown Mnemonic 'set_stat'.
   1987  07c9					      set_stat	$ff
   1988  07ca		       ba		      tsx		;clears Z, N
   1989  07cb		       08		      php		;sp=00
   1990  07cc		       e0 01		      cpx	#1
unittest.asm (1991): error: Unknown Mnemonic 'trap_ne'.
   1991  07cc					      trap_ne
   1992  07ce		       ad 01 01 	      lda	$101
unittest.asm (1993): error: Unknown Mnemonic 'cmp_flag'.
   1993  07ce					      cmp_flag	$ff-minus-zero
unittest.asm (1994): error: Unknown Mnemonic 'trap_ne'.
   1994  07ce					      trap_ne
unittest.asm (1995): error: Unknown Mnemonic 'set_stat'.
   1995  07ce					      set_stat	$ff
   1996  07d1		       ba		      tsx		;clears N, sets Z
   1997  07d2		       08		      php		;sp=ff
   1998  07d3		       e0 00		      cpx	#0
unittest.asm (1999): error: Unknown Mnemonic 'trap_ne'.
   1999  07d3					      trap_ne
   2000  07d5		       ad 00 01 	      lda	$100
unittest.asm (2001): error: Unknown Mnemonic 'cmp_flag'.
   2001  07d5					      cmp_flag	$ff-minus
unittest.asm (2002): error: Unknown Mnemonic 'trap_ne'.
   2002  07d5					      trap_ne
unittest.asm (2003): error: Unknown Mnemonic 'set_stat'.
   2003  07d5					      set_stat	$ff
   2004  07d8		       ba		      tsx		;clears N, sets Z
   2005  07d9		       08		      php		;sp=fe
   2006  07da		       e0 ff		      cpx	#$ff
unittest.asm (2007): error: Unknown Mnemonic 'trap_ne'.
   2007  07da					      trap_ne
   2008  07dc		       ad ff 01 	      lda	$1ff
unittest.asm (2009): error: Unknown Mnemonic 'cmp_flag'.
   2009  07dc					      cmp_flag	$ff-zero
unittest.asm (2010): error: Unknown Mnemonic 'trap_ne'.
   2010  07dc					      trap_ne
   2011  07df
   2012  07df		       a2 01		      ldx	#1
   2013  07e1		       9a		      txs		;sp=01
unittest.asm (2014): error: Unknown Mnemonic 'set_stat'.
   2014  07e1					      set_stat	0
   2015  07e2		       ba		      tsx		;clears Z, N
   2016  07e3		       08		      php		;sp=00
   2017  07e4		       e0 01		      cpx	#1
unittest.asm (2018): error: Unknown Mnemonic 'trap_ne'.
   2018  07e4					      trap_ne
   2019  07e6		       ad 01 01 	      lda	$101
unittest.asm (2020): error: Unknown Mnemonic 'cmp_flag'.
   2020  07e6					      cmp_flag	0
unittest.asm (2021): error: Unknown Mnemonic 'trap_ne'.
   2021  07e6					      trap_ne
unittest.asm (2022): error: Unknown Mnemonic 'set_stat'.
   2022  07e6					      set_stat	0
   2023  07e9		       ba		      tsx		;clears N, sets Z
   2024  07ea		       08		      php		;sp=ff
   2025  07eb		       e0 00		      cpx	#0
unittest.asm (2026): error: Unknown Mnemonic 'trap_ne'.
   2026  07eb					      trap_ne
   2027  07ed		       ad 00 01 	      lda	$100
unittest.asm (2028): error: Unknown Mnemonic 'cmp_flag'.
   2028  07ed					      cmp_flag	zero
unittest.asm (2029): error: Unknown Mnemonic 'trap_ne'.
   2029  07ed					      trap_ne
unittest.asm (2030): error: Unknown Mnemonic 'set_stat'.
   2030  07ed					      set_stat	0
   2031  07f0		       ba		      tsx		;clears N, sets Z
   2032  07f1		       08		      php		;sp=fe
   2033  07f2		       e0 ff		      cpx	#$ff
unittest.asm (2034): error: Unknown Mnemonic 'trap_ne'.
   2034  07f2					      trap_ne
   2035  07f4		       ad ff 01 	      lda	$1ff
unittest.asm (2036): error: Unknown Mnemonic 'cmp_flag'.
   2036  07f4					      cmp_flag	minus
unittest.asm (2037): error: Unknown Mnemonic 'trap_ne'.
   2037  07f4					      trap_ne
   2038  07f7		       68		      pla		;sp=ff
unittest.asm (2039): error: Unknown Mnemonic 'next_test'.
   2039  07f7					      next_test
   2040  07f8
   2041  07f8							; testing index register load & store LDY LDX STY STX all addressing modes
   2042  07f8							; LDX / STX - zp,y / abs,y
   2043  07f8		       a0 03		      ldy	#3
   2044  07fa				   tldx
unittest.asm (2045): error: Unknown Mnemonic 'set_stat'.
   2045  07fa					      set_stat	0
   2046  07fa		       b6 4b		      ldx	zp1,y
   2047  07fc		       08		      php		;test stores do not alter flags
   2048  07fd		       8a		      txa
   2049  07fe		       49 c3		      eor	#$c3
   2050  0800		       28		      plp
   2051  0801		       99 03 02 	      sta	abst,y
   2052  0804		       08		      php		;flags after load/store sequence
   2053  0805		       49 c3		      eor	#$c3
   2054  0807		       d9 18 02 	      cmp	abs1,y	;test result
unittest.asm (2055): error: Unknown Mnemonic 'trap_ne'.
   2055  0807					      trap_ne
   2056  080a		       68		      pla		;load status
unittest.asm (2057): error: Unknown Mnemonic 'eor_flag'.
   2057  080a					      eor_flag	0
   2058  080b		       d9 1d 02 	      cmp	fLDx,y	;test flags
unittest.asm (2059): error: Unknown Mnemonic 'trap_ne'.
   2059  080b					      trap_ne
   2060  080e		       88		      dey
   2061  080f		       10 e9		      bpl	tldx
   2062  0811
   2063  0811		       a0 03		      ldy	#3
   2064  0813				   tldx1
unittest.asm (2065): error: Unknown Mnemonic 'set_stat'.
   2065  0813					      set_stat	$ff
   2066  0813		       b6 4b		      ldx	zp1,y
   2067  0815		       08		      php		;test stores do not alter flags
   2068  0816		       8a		      txa
   2069  0817		       49 c3		      eor	#$c3
   2070  0819		       28		      plp
   2071  081a		       99 03 02 	      sta	abst,y
   2072  081d		       08		      php		;flags after load/store sequence
   2073  081e		       49 c3		      eor	#$c3
   2074  0820		       d9 18 02 	      cmp	abs1,y	;test result
unittest.asm (2075): error: Unknown Mnemonic 'trap_ne'.
   2075  0820					      trap_ne
   2076  0823		       68		      pla		;load status
unittest.asm (2077): error: Unknown Mnemonic 'eor_flag'.
   2077  0823					      eor_flag	lo~fnz	;mask bits not altered
   2078  0824		       d9 1d 02 	      cmp	fLDx,y	;test flags
unittest.asm (2079): error: Unknown Mnemonic 'trap_ne'.
   2079  0824					      trap_ne
   2080  0827		       88		      dey
   2081  0828		       10 e9		      bpl	tldx1
   2082  082a
   2083  082a		       a0 03		      ldy	#3
   2084  082c				   tldx2
unittest.asm (2085): error: Unknown Mnemonic 'set_stat'.
   2085  082c					      set_stat	0
   2086  082c		       be 18 02 	      ldx	abs1,y
   2087  082f		       08		      php		;test stores do not alter flags
   2088  0830		       8a		      txa
   2089  0831		       49 c3		      eor	#$c3
   2090  0833		       aa		      tax
   2091  0834		       28		      plp
   2092  0835		       96 42		      stx	zpt,y
   2093  0837		       08		      php		;flags after load/store sequence
   2094  0838		       49 c3		      eor	#$c3
   2095  083a		       d9 4b 00 	      cmp	zp1,y	;test result
unittest.asm (2096): error: Unknown Mnemonic 'trap_ne'.
   2096  083a					      trap_ne
   2097  083d		       68		      pla		;load status
unittest.asm (2098): error: Unknown Mnemonic 'eor_flag'.
   2098  083d					      eor_flag	0
   2099  083e		       d9 1d 02 	      cmp	fLDx,y	;test flags
unittest.asm (2100): error: Unknown Mnemonic 'trap_ne'.
   2100  083e					      trap_ne
   2101  0841		       88		      dey
   2102  0842		       10 e8		      bpl	tldx2
   2103  0844
   2104  0844		       a0 03		      ldy	#3
   2105  0846				   tldx3
unittest.asm (2106): error: Unknown Mnemonic 'set_stat'.
   2106  0846					      set_stat	$ff
   2107  0846		       be 18 02 	      ldx	abs1,y
   2108  0849		       08		      php		;test stores do not alter flags
   2109  084a		       8a		      txa
   2110  084b		       49 c3		      eor	#$c3
   2111  084d		       aa		      tax
   2112  084e		       28		      plp
   2113  084f		       96 42		      stx	zpt,y
   2114  0851		       08		      php		;flags after load/store sequence
   2115  0852		       49 c3		      eor	#$c3
   2116  0854		       d9 4b 00 	      cmp	zp1,y	;test result
unittest.asm (2117): error: Unknown Mnemonic 'trap_ne'.
   2117  0854					      trap_ne
   2118  0857		       68		      pla		;load status
unittest.asm (2119): error: Unknown Mnemonic 'eor_flag'.
   2119  0857					      eor_flag	lo~fnz	;mask bits not altered
   2120  0858		       d9 1d 02 	      cmp	fLDx,y	;test flags
unittest.asm (2121): error: Unknown Mnemonic 'trap_ne'.
   2121  0858					      trap_ne
   2122  085b		       88		      dey
   2123  085c		       10 e8		      bpl	tldx3
   2124  085e
   2125  085e		       a0 03		      ldy	#3	;testing store result
   2126  0860		       a2 00		      ldx	#0
   2127  0862		       b9 42 00    tstx       lda	zpt,y
   2128  0865		       49 c3		      eor	#$c3
   2129  0867		       d9 4b 00 	      cmp	zp1,y
unittest.asm (2130): error: Unknown Mnemonic 'trap_ne'.
   2130  0867					      trap_ne		;store to zp data
   2131  086a		       96 42		      stx	zpt,y	;clear
   2132  086c		       b9 03 02 	      lda	abst,y
   2133  086f		       49 c3		      eor	#$c3
   2134  0871		       d9 18 02 	      cmp	abs1,y
unittest.asm (2135): error: Unknown Mnemonic 'trap_ne'.
   2135  0871					      trap_ne		;store to abs data
   2136  0874		       8a		      txa
   2137  0875		       99 03 02 	      sta	abst,y	;clear
   2138  0878		       88		      dey
   2139  0879		       10 e7		      bpl	tstx
unittest.asm (2140): error: Unknown Mnemonic 'next_test'.
   2140  0879					      next_test
   2141  087b
   2142  087b							; indexed wraparound test (only zp should wrap)
   2143  087b		       a0 fd		      ldy	#3+$fa
   2144  087d		       b6 51	   tldx4      ldx	zp1-$fa&$ff,y	;wrap on indexed zp
   2145  087f		       8a		      txa
   2146  0880		       99 09 01 	      sta	abst-$fa,y	;no STX abs,y!
   2147  0883		       88		      dey
   2148  0884		       c0 fa		      cpy	#$fa
   2149  0886		       b0 f5		      bcs	tldx4
   2150  0888		       a0 fd		      ldy	#3+$fa
   2151  088a		       be 1e 01    tldx5      ldx	abs1-$fa,y	;no wrap on indexed abs
   2152  088d		       96 48		      stx	zpt-$fa&$ff,y
   2153  088f		       88		      dey
   2154  0890		       c0 fa		      cpy	#$fa
   2155  0892		       b0 f6		      bcs	tldx5
   2156  0894		       a0 03		      ldy	#3	;testing wraparound result
   2157  0896		       a2 00		      ldx	#0
   2158  0898		       b9 42 00    tstx1      lda	zpt,y
   2159  089b		       d9 4b 00 	      cmp	zp1,y
unittest.asm (2160): error: Unknown Mnemonic 'trap_ne'.
   2160  089b					      trap_ne		;store to zp data
   2161  089e		       96 42		      stx	zpt,y	;clear
   2162  08a0		       b9 03 02 	      lda	abst,y
   2163  08a3		       d9 18 02 	      cmp	abs1,y
unittest.asm (2164): error: Unknown Mnemonic 'trap_ne'.
   2164  08a3					      trap_ne		;store to abs data
   2165  08a6		       8a		      txa
   2166  08a7		       99 03 02 	      sta	abst,y	;clear
   2167  08aa		       88		      dey
   2168  08ab		       10 eb		      bpl	tstx1
unittest.asm (2169): error: Unknown Mnemonic 'next_test'.
   2169  08ab					      next_test
   2170  08ad
   2171  08ad							; LDY / STY - zp,x / abs,x
   2172  08ad		       a2 03		      ldx	#3
   2173  08af				   tldy
unittest.asm (2174): error: Unknown Mnemonic 'set_stat'.
   2174  08af					      set_stat	0
   2175  08af		       b4 4b		      ldy	zp1,x
   2176  08b1		       08		      php		;test stores do not alter flags
   2177  08b2		       98		      tya
   2178  08b3		       49 c3		      eor	#$c3
   2179  08b5		       28		      plp
   2180  08b6		       9d 03 02 	      sta	abst,x
   2181  08b9		       08		      php		;flags after load/store sequence
   2182  08ba		       49 c3		      eor	#$c3
   2183  08bc		       dd 18 02 	      cmp	abs1,x	;test result
unittest.asm (2184): error: Unknown Mnemonic 'trap_ne'.
   2184  08bc					      trap_ne
   2185  08bf		       68		      pla		;load status
unittest.asm (2186): error: Unknown Mnemonic 'eor_flag'.
   2186  08bf					      eor_flag	0
   2187  08c0		       dd 1d 02 	      cmp	fLDx,x	;test flags
unittest.asm (2188): error: Unknown Mnemonic 'trap_ne'.
   2188  08c0					      trap_ne
   2189  08c3		       ca		      dex
   2190  08c4		       10 e9		      bpl	tldy
   2191  08c6
   2192  08c6		       a2 03		      ldx	#3
   2193  08c8				   tldy1
unittest.asm (2194): error: Unknown Mnemonic 'set_stat'.
   2194  08c8					      set_stat	$ff
   2195  08c8		       b4 4b		      ldy	zp1,x
   2196  08ca		       08		      php		;test stores do not alter flags
   2197  08cb		       98		      tya
   2198  08cc		       49 c3		      eor	#$c3
   2199  08ce		       28		      plp
   2200  08cf		       9d 03 02 	      sta	abst,x
   2201  08d2		       08		      php		;flags after load/store sequence
   2202  08d3		       49 c3		      eor	#$c3
   2203  08d5		       dd 18 02 	      cmp	abs1,x	;test result
unittest.asm (2204): error: Unknown Mnemonic 'trap_ne'.
   2204  08d5					      trap_ne
   2205  08d8		       68		      pla		;load status
unittest.asm (2206): error: Unknown Mnemonic 'eor_flag'.
   2206  08d8					      eor_flag	lo~fnz	;mask bits not altered
   2207  08d9		       dd 1d 02 	      cmp	fLDx,x	;test flags
unittest.asm (2208): error: Unknown Mnemonic 'trap_ne'.
   2208  08d9					      trap_ne
   2209  08dc		       ca		      dex
   2210  08dd		       10 e9		      bpl	tldy1
   2211  08df
   2212  08df		       a2 03		      ldx	#3
   2213  08e1				   tldy2
unittest.asm (2214): error: Unknown Mnemonic 'set_stat'.
   2214  08e1					      set_stat	0
   2215  08e1		       bc 18 02 	      ldy	abs1,x
   2216  08e4		       08		      php		;test stores do not alter flags
   2217  08e5		       98		      tya
   2218  08e6		       49 c3		      eor	#$c3
   2219  08e8		       a8		      tay
   2220  08e9		       28		      plp
   2221  08ea		       94 42		      sty	zpt,x
   2222  08ec		       08		      php		;flags after load/store sequence
   2223  08ed		       49 c3		      eor	#$c3
   2224  08ef		       d5 4b		      cmp	zp1,x	;test result
unittest.asm (2225): error: Unknown Mnemonic 'trap_ne'.
   2225  08ef					      trap_ne
   2226  08f1		       68		      pla		;load status
unittest.asm (2227): error: Unknown Mnemonic 'eor_flag'.
   2227  08f1					      eor_flag	0
   2228  08f2		       dd 1d 02 	      cmp	fLDx,x	;test flags
unittest.asm (2229): error: Unknown Mnemonic 'trap_ne'.
   2229  08f2					      trap_ne
   2230  08f5		       ca		      dex
   2231  08f6		       10 e9		      bpl	tldy2
   2232  08f8
   2233  08f8		       a2 03		      ldx	#3
   2234  08fa				   tldy3
unittest.asm (2235): error: Unknown Mnemonic 'set_stat'.
   2235  08fa					      set_stat	$ff
   2236  08fa		       bc 18 02 	      ldy	abs1,x
   2237  08fd		       08		      php		;test stores do not alter flags
   2238  08fe		       98		      tya
   2239  08ff		       49 c3		      eor	#$c3
   2240  0901		       a8		      tay
   2241  0902		       28		      plp
   2242  0903		       94 42		      sty	zpt,x
   2243  0905		       08		      php		;flags after load/store sequence
   2244  0906		       49 c3		      eor	#$c3
   2245  0908		       d5 4b		      cmp	zp1,x	;test result
unittest.asm (2246): error: Unknown Mnemonic 'trap_ne'.
   2246  0908					      trap_ne
   2247  090a		       68		      pla		;load status
unittest.asm (2248): error: Unknown Mnemonic 'eor_flag'.
   2248  090a					      eor_flag	lo~fnz	;mask bits not altered
   2249  090b		       dd 1d 02 	      cmp	fLDx,x	;test flags
unittest.asm (2250): error: Unknown Mnemonic 'trap_ne'.
   2250  090b					      trap_ne
   2251  090e		       ca		      dex
   2252  090f		       10 e9		      bpl	tldy3
   2253  0911
   2254  0911		       a2 03		      ldx	#3	;testing store result
   2255  0913		       a0 00		      ldy	#0
   2256  0915		       b5 42	   tsty       lda	zpt,x
   2257  0917		       49 c3		      eor	#$c3
   2258  0919		       d5 4b		      cmp	zp1,x
unittest.asm (2259): error: Unknown Mnemonic 'trap_ne'.
   2259  0919					      trap_ne		;store to zp,x data
   2260  091b		       94 42		      sty	zpt,x	;clear
   2261  091d		       bd 03 02 	      lda	abst,x
   2262  0920		       49 c3		      eor	#$c3
   2263  0922		       dd 18 02 	      cmp	abs1,x
unittest.asm (2264): error: Unknown Mnemonic 'trap_ne'.
   2264  0922					      trap_ne		;store to abs,x data
   2265  0925		       8a		      txa
   2266  0926		       9d 03 02 	      sta	abst,x	;clear
   2267  0929		       ca		      dex
   2268  092a		       10 e9		      bpl	tsty
unittest.asm (2269): error: Unknown Mnemonic 'next_test'.
   2269  092a					      next_test
   2270  092c
   2271  092c							; indexed wraparound test (only zp should wrap)
   2272  092c		       a2 fd		      ldx	#3+$fa
   2273  092e		       b4 51	   tldy4      ldy	zp1-$fa&$ff,x	;wrap on indexed zp
   2274  0930		       98		      tya
   2275  0931		       9d 09 01 	      sta	abst-$fa,x	;no STX abs,x!
   2276  0934		       ca		      dex
   2277  0935		       e0 fa		      cpx	#$fa
   2278  0937		       b0 f5		      bcs	tldy4
   2279  0939		       a2 fd		      ldx	#3+$fa
   2280  093b		       bc 1e 01    tldy5      ldy	abs1-$fa,x	;no wrap on indexed abs
   2281  093e		       94 48		      sty	zpt-$fa&$ff,x
   2282  0940		       ca		      dex
   2283  0941		       e0 fa		      cpx	#$fa
   2284  0943		       b0 f6		      bcs	tldy5
   2285  0945		       a2 03		      ldx	#3	;testing wraparound result
   2286  0947		       a0 00		      ldy	#0
   2287  0949		       b5 42	   tsty1      lda	zpt,x
   2288  094b		       d5 4b		      cmp	zp1,x
unittest.asm (2289): error: Unknown Mnemonic 'trap_ne'.
   2289  094b					      trap_ne		;store to zp,x data
   2290  094d		       94 42		      sty	zpt,x	;clear
   2291  094f		       bd 03 02 	      lda	abst,x
   2292  0952		       dd 18 02 	      cmp	abs1,x
unittest.asm (2293): error: Unknown Mnemonic 'trap_ne'.
   2293  0952					      trap_ne		;store to abs,x data
   2294  0955		       8a		      txa
   2295  0956		       9d 03 02 	      sta	abst,x	;clear
   2296  0959		       ca		      dex
   2297  095a		       10 ed		      bpl	tsty1
unittest.asm (2298): error: Unknown Mnemonic 'next_test'.
   2298  095a					      next_test
   2299  095c
   2300  095c							; LDX / STX - zp / abs / #
unittest.asm (2301): error: Unknown Mnemonic 'set_stat'.
   2301  095c					      set_stat	0
   2302  095c		       a6 4b		      ldx	zp1
   2303  095e		       08		      php		;test stores do not alter flags
   2304  095f		       8a		      txa
   2305  0960		       49 c3		      eor	#$c3
   2306  0962		       aa		      tax
   2307  0963		       28		      plp
   2308  0964		       8e 03 02 	      stx	abst
   2309  0967		       08		      php		;flags after load/store sequence
   2310  0968		       49 c3		      eor	#$c3
   2311  096a		       aa		      tax
   2312  096b		       e0 c3		      cpx	#$c3	;test result
unittest.asm (2313): error: Unknown Mnemonic 'trap_ne'.
   2313  096b					      trap_ne
   2314  096d		       68		      pla		;load status
unittest.asm (2315): error: Unknown Mnemonic 'eor_flag'.
   2315  096d					      eor_flag	0
   2316  096e		       cd 1d 02 	      cmp	fLDx	;test flags
unittest.asm (2317): error: Unknown Mnemonic 'trap_ne'.
   2317  096e					      trap_ne
unittest.asm (2318): error: Unknown Mnemonic 'set_stat'.
   2318  096e					      set_stat	0
   2319  0971		       a6 4c		      ldx	zp1+1
   2320  0973		       08		      php		;test stores do not alter flags
   2321  0974		       8a		      txa
   2322  0975		       49 c3		      eor	#$c3
   2323  0977		       aa		      tax
   2324  0978		       28		      plp
   2325  0979		       8e 04 02 	      stx	abst+1
   2326  097c		       08		      php		;flags after load/store sequence
   2327  097d		       49 c3		      eor	#$c3
   2328  097f		       aa		      tax
   2329  0980		       e0 82		      cpx	#$82	;test result
unittest.asm (2330): error: Unknown Mnemonic 'trap_ne'.
   2330  0980					      trap_ne
   2331  0982		       68		      pla		;load status
unittest.asm (2332): error: Unknown Mnemonic 'eor_flag'.
   2332  0982					      eor_flag	0
   2333  0983		       cd 1e 02 	      cmp	fLDx+1	;test flags
unittest.asm (2334): error: Unknown Mnemonic 'trap_ne'.
   2334  0983					      trap_ne
unittest.asm (2335): error: Unknown Mnemonic 'set_stat'.
   2335  0983					      set_stat	0
   2336  0986		       a6 4d		      ldx	zp1+2
   2337  0988		       08		      php		;test stores do not alter flags
   2338  0989		       8a		      txa
   2339  098a		       49 c3		      eor	#$c3
   2340  098c		       aa		      tax
   2341  098d		       28		      plp
   2342  098e		       8e 05 02 	      stx	abst+2
   2343  0991		       08		      php		;flags after load/store sequence
   2344  0992		       49 c3		      eor	#$c3
   2345  0994		       aa		      tax
   2346  0995		       e0 41		      cpx	#$41	;test result
unittest.asm (2347): error: Unknown Mnemonic 'trap_ne'.
   2347  0995					      trap_ne
   2348  0997		       68		      pla		;load status
unittest.asm (2349): error: Unknown Mnemonic 'eor_flag'.
   2349  0997					      eor_flag	0
   2350  0998		       cd 1f 02 	      cmp	fLDx+2	;test flags
unittest.asm (2351): error: Unknown Mnemonic 'trap_ne'.
   2351  0998					      trap_ne
unittest.asm (2352): error: Unknown Mnemonic 'set_stat'.
   2352  0998					      set_stat	0
   2353  099b		       a6 4e		      ldx	zp1+3
   2354  099d		       08		      php		;test stores do not alter flags
   2355  099e		       8a		      txa
   2356  099f		       49 c3		      eor	#$c3
   2357  09a1		       aa		      tax
   2358  09a2		       28		      plp
   2359  09a3		       8e 06 02 	      stx	abst+3
   2360  09a6		       08		      php		;flags after load/store sequence
   2361  09a7		       49 c3		      eor	#$c3
   2362  09a9		       aa		      tax
   2363  09aa		       e0 00		      cpx	#0	;test result
unittest.asm (2364): error: Unknown Mnemonic 'trap_ne'.
   2364  09aa					      trap_ne
   2365  09ac		       68		      pla		;load status
unittest.asm (2366): error: Unknown Mnemonic 'eor_flag'.
   2366  09ac					      eor_flag	0
   2367  09ad		       cd 20 02 	      cmp	fLDx+3	;test flags
unittest.asm (2368): error: Unknown Mnemonic 'trap_ne'.
   2368  09ad					      trap_ne
   2369  09b0
unittest.asm (2370): error: Unknown Mnemonic 'set_stat'.
   2370  09b0					      set_stat	$ff
   2371  09b0		       a6 4b		      ldx	zp1
   2372  09b2		       08		      php		;test stores do not alter flags
   2373  09b3		       8a		      txa
   2374  09b4		       49 c3		      eor	#$c3
   2375  09b6		       aa		      tax
   2376  09b7		       28		      plp
   2377  09b8		       8e 03 02 	      stx	abst
   2378  09bb		       08		      php		;flags after load/store sequence
   2379  09bc		       49 c3		      eor	#$c3
   2380  09be		       aa		      tax
   2381  09bf		       e0 c3		      cpx	#$c3	;test result
unittest.asm (2382): error: Unknown Mnemonic 'trap_ne'.
   2382  09bf					      trap_ne		;
   2383  09c1		       68		      pla		;load status
unittest.asm (2384): error: Unknown Mnemonic 'eor_flag'.
   2384  09c1					      eor_flag	lo~fnz	;mask bits not altered
   2385  09c2		       cd 1d 02 	      cmp	fLDx	;test flags
unittest.asm (2386): error: Unknown Mnemonic 'trap_ne'.
   2386  09c2					      trap_ne
unittest.asm (2387): error: Unknown Mnemonic 'set_stat'.
   2387  09c2					      set_stat	$ff
   2388  09c5		       a6 4c		      ldx	zp1+1
   2389  09c7		       08		      php		;test stores do not alter flags
   2390  09c8		       8a		      txa
   2391  09c9		       49 c3		      eor	#$c3
   2392  09cb		       aa		      tax
   2393  09cc		       28		      plp
   2394  09cd		       8e 04 02 	      stx	abst+1
   2395  09d0		       08		      php		;flags after load/store sequence
   2396  09d1		       49 c3		      eor	#$c3
   2397  09d3		       aa		      tax
   2398  09d4		       e0 82		      cpx	#$82	;test result
unittest.asm (2399): error: Unknown Mnemonic 'trap_ne'.
   2399  09d4					      trap_ne
   2400  09d6		       68		      pla		;load status
unittest.asm (2401): error: Unknown Mnemonic 'eor_flag'.
   2401  09d6					      eor_flag	lo~fnz	;mask bits not altered
   2402  09d7		       cd 1e 02 	      cmp	fLDx+1	;test flags
unittest.asm (2403): error: Unknown Mnemonic 'trap_ne'.
   2403  09d7					      trap_ne
unittest.asm (2404): error: Unknown Mnemonic 'set_stat'.
   2404  09d7					      set_stat	$ff
   2405  09da		       a6 4d		      ldx	zp1+2
   2406  09dc		       08		      php		;test stores do not alter flags
   2407  09dd		       8a		      txa
   2408  09de		       49 c3		      eor	#$c3
   2409  09e0		       aa		      tax
   2410  09e1		       28		      plp
   2411  09e2		       8e 05 02 	      stx	abst+2
   2412  09e5		       08		      php		;flags after load/store sequence
   2413  09e6		       49 c3		      eor	#$c3
   2414  09e8		       aa		      tax
   2415  09e9		       e0 41		      cpx	#$41	;test result
unittest.asm (2416): error: Unknown Mnemonic 'trap_ne'.
   2416  09e9					      trap_ne		;
   2417  09eb		       68		      pla		;load status
unittest.asm (2418): error: Unknown Mnemonic 'eor_flag'.
   2418  09eb					      eor_flag	lo~fnz	;mask bits not altered
   2419  09ec		       cd 1f 02 	      cmp	fLDx+2	;test flags
unittest.asm (2420): error: Unknown Mnemonic 'trap_ne'.
   2420  09ec					      trap_ne
unittest.asm (2421): error: Unknown Mnemonic 'set_stat'.
   2421  09ec					      set_stat	$ff
   2422  09ef		       a6 4e		      ldx	zp1+3
   2423  09f1		       08		      php		;test stores do not alter flags
   2424  09f2		       8a		      txa
   2425  09f3		       49 c3		      eor	#$c3
   2426  09f5		       aa		      tax
   2427  09f6		       28		      plp
   2428  09f7		       8e 06 02 	      stx	abst+3
   2429  09fa		       08		      php		;flags after load/store sequence
   2430  09fb		       49 c3		      eor	#$c3
   2431  09fd		       aa		      tax
   2432  09fe		       e0 00		      cpx	#0	;test result
unittest.asm (2433): error: Unknown Mnemonic 'trap_ne'.
   2433  09fe					      trap_ne
   2434  0a00		       68		      pla		;load status
unittest.asm (2435): error: Unknown Mnemonic 'eor_flag'.
   2435  0a00					      eor_flag	lo~fnz	;mask bits not altered
   2436  0a01		       cd 20 02 	      cmp	fLDx+3	;test flags
unittest.asm (2437): error: Unknown Mnemonic 'trap_ne'.
   2437  0a01					      trap_ne
   2438  0a04
unittest.asm (2439): error: Unknown Mnemonic 'set_stat'.
   2439  0a04					      set_stat	0
   2440  0a04		       ae 18 02 	      ldx	abs1
   2441  0a07		       08		      php		;test stores do not alter flags
   2442  0a08		       8a		      txa
   2443  0a09		       49 c3		      eor	#$c3
   2444  0a0b		       aa		      tax
   2445  0a0c		       28		      plp
   2446  0a0d		       86 42		      stx	zpt
   2447  0a0f		       08		      php		;flags after load/store sequence
   2448  0a10		       49 c3		      eor	#$c3
   2449  0a12		       c5 4b		      cmp	zp1	;test result
unittest.asm (2450): error: Unknown Mnemonic 'trap_ne'.
   2450  0a12					      trap_ne
   2451  0a14		       68		      pla		;load status
unittest.asm (2452): error: Unknown Mnemonic 'eor_flag'.
   2452  0a14					      eor_flag	0
   2453  0a15		       cd 1d 02 	      cmp	fLDx	;test flags
unittest.asm (2454): error: Unknown Mnemonic 'trap_ne'.
   2454  0a15					      trap_ne
unittest.asm (2455): error: Unknown Mnemonic 'set_stat'.
   2455  0a15					      set_stat	0
   2456  0a18		       ae 19 02 	      ldx	abs1+1
   2457  0a1b		       08		      php		;test stores do not alter flags
   2458  0a1c		       8a		      txa
   2459  0a1d		       49 c3		      eor	#$c3
   2460  0a1f		       aa		      tax
   2461  0a20		       28		      plp
   2462  0a21		       86 43		      stx	zpt+1
   2463  0a23		       08		      php		;flags after load/store sequence
   2464  0a24		       49 c3		      eor	#$c3
   2465  0a26		       c5 4c		      cmp	zp1+1	;test result
unittest.asm (2466): error: Unknown Mnemonic 'trap_ne'.
   2466  0a26					      trap_ne
   2467  0a28		       68		      pla		;load status
unittest.asm (2468): error: Unknown Mnemonic 'eor_flag'.
   2468  0a28					      eor_flag	0
   2469  0a29		       cd 1e 02 	      cmp	fLDx+1	;test flags
unittest.asm (2470): error: Unknown Mnemonic 'trap_ne'.
   2470  0a29					      trap_ne
unittest.asm (2471): error: Unknown Mnemonic 'set_stat'.
   2471  0a29					      set_stat	0
   2472  0a2c		       ae 1a 02 	      ldx	abs1+2
   2473  0a2f		       08		      php		;test stores do not alter flags
   2474  0a30		       8a		      txa
   2475  0a31		       49 c3		      eor	#$c3
   2476  0a33		       aa		      tax
   2477  0a34		       28		      plp
   2478  0a35		       86 44		      stx	zpt+2
   2479  0a37		       08		      php		;flags after load/store sequence
   2480  0a38		       49 c3		      eor	#$c3
   2481  0a3a		       c5 4d		      cmp	zp1+2	;test result
unittest.asm (2482): error: Unknown Mnemonic 'trap_ne'.
   2482  0a3a					      trap_ne
   2483  0a3c		       68		      pla		;load status
unittest.asm (2484): error: Unknown Mnemonic 'eor_flag'.
   2484  0a3c					      eor_flag	0
   2485  0a3d		       cd 1f 02 	      cmp	fLDx+2	;test flags
unittest.asm (2486): error: Unknown Mnemonic 'trap_ne'.
   2486  0a3d					      trap_ne
unittest.asm (2487): error: Unknown Mnemonic 'set_stat'.
   2487  0a3d					      set_stat	0
   2488  0a40		       ae 1b 02 	      ldx	abs1+3
   2489  0a43		       08		      php		;test stores do not alter flags
   2490  0a44		       8a		      txa
   2491  0a45		       49 c3		      eor	#$c3
   2492  0a47		       aa		      tax
   2493  0a48		       28		      plp
   2494  0a49		       86 45		      stx	zpt+3
   2495  0a4b		       08		      php		;flags after load/store sequence
   2496  0a4c		       49 c3		      eor	#$c3
   2497  0a4e		       c5 4e		      cmp	zp1+3	;test result
unittest.asm (2498): error: Unknown Mnemonic 'trap_ne'.
   2498  0a4e					      trap_ne
   2499  0a50		       68		      pla		;load status
unittest.asm (2500): error: Unknown Mnemonic 'eor_flag'.
   2500  0a50					      eor_flag	0
   2501  0a51		       cd 20 02 	      cmp	fLDx+3	;test flags
unittest.asm (2502): error: Unknown Mnemonic 'trap_ne'.
   2502  0a51					      trap_ne
   2503  0a54
unittest.asm (2504): error: Unknown Mnemonic 'set_stat'.
   2504  0a54					      set_stat	$ff
   2505  0a54		       ae 18 02 	      ldx	abs1
   2506  0a57		       08		      php		;test stores do not alter flags
   2507  0a58		       8a		      txa
   2508  0a59		       49 c3		      eor	#$c3
   2509  0a5b		       aa		      tax
   2510  0a5c		       28		      plp
   2511  0a5d		       86 42		      stx	zpt
   2512  0a5f		       08		      php		;flags after load/store sequence
   2513  0a60		       49 c3		      eor	#$c3
   2514  0a62		       aa		      tax
   2515  0a63		       e4 4b		      cpx	zp1	;test result
unittest.asm (2516): error: Unknown Mnemonic 'trap_ne'.
   2516  0a63					      trap_ne
   2517  0a65		       68		      pla		;load status
unittest.asm (2518): error: Unknown Mnemonic 'eor_flag'.
   2518  0a65					      eor_flag	lo~fnz	;mask bits not altered
   2519  0a66		       cd 1d 02 	      cmp	fLDx	;test flags
unittest.asm (2520): error: Unknown Mnemonic 'trap_ne'.
   2520  0a66					      trap_ne
unittest.asm (2521): error: Unknown Mnemonic 'set_stat'.
   2521  0a66					      set_stat	$ff
   2522  0a69		       ae 19 02 	      ldx	abs1+1
   2523  0a6c		       08		      php		;test stores do not alter flags
   2524  0a6d		       8a		      txa
   2525  0a6e		       49 c3		      eor	#$c3
   2526  0a70		       aa		      tax
   2527  0a71		       28		      plp
   2528  0a72		       86 43		      stx	zpt+1
   2529  0a74		       08		      php		;flags after load/store sequence
   2530  0a75		       49 c3		      eor	#$c3
   2531  0a77		       aa		      tax
   2532  0a78		       e4 4c		      cpx	zp1+1	;test result
unittest.asm (2533): error: Unknown Mnemonic 'trap_ne'.
   2533  0a78					      trap_ne
   2534  0a7a		       68		      pla		;load status
unittest.asm (2535): error: Unknown Mnemonic 'eor_flag'.
   2535  0a7a					      eor_flag	lo~fnz	;mask bits not altered
   2536  0a7b		       cd 1e 02 	      cmp	fLDx+1	;test flags
unittest.asm (2537): error: Unknown Mnemonic 'trap_ne'.
   2537  0a7b					      trap_ne
unittest.asm (2538): error: Unknown Mnemonic 'set_stat'.
   2538  0a7b					      set_stat	$ff
   2539  0a7e		       ae 1a 02 	      ldx	abs1+2
   2540  0a81		       08		      php		;test stores do not alter flags
   2541  0a82		       8a		      txa
   2542  0a83		       49 c3		      eor	#$c3
   2543  0a85		       aa		      tax
   2544  0a86		       28		      plp
   2545  0a87		       86 44		      stx	zpt+2
   2546  0a89		       08		      php		;flags after load/store sequence
   2547  0a8a		       49 c3		      eor	#$c3
   2548  0a8c		       aa		      tax
   2549  0a8d		       e4 4d		      cpx	zp1+2	;test result
unittest.asm (2550): error: Unknown Mnemonic 'trap_ne'.
   2550  0a8d					      trap_ne
   2551  0a8f		       68		      pla		;load status
unittest.asm (2552): error: Unknown Mnemonic 'eor_flag'.
   2552  0a8f					      eor_flag	lo~fnz	;mask bits not altered
   2553  0a90		       cd 1f 02 	      cmp	fLDx+2	;test flags
unittest.asm (2554): error: Unknown Mnemonic 'trap_ne'.
   2554  0a90					      trap_ne
unittest.asm (2555): error: Unknown Mnemonic 'set_stat'.
   2555  0a90					      set_stat	$ff
   2556  0a93		       ae 1b 02 	      ldx	abs1+3
   2557  0a96		       08		      php		;test stores do not alter flags
   2558  0a97		       8a		      txa
   2559  0a98		       49 c3		      eor	#$c3
   2560  0a9a		       aa		      tax
   2561  0a9b		       28		      plp
   2562  0a9c		       86 45		      stx	zpt+3
   2563  0a9e		       08		      php		;flags after load/store sequence
   2564  0a9f		       49 c3		      eor	#$c3
   2565  0aa1		       aa		      tax
   2566  0aa2		       e4 4e		      cpx	zp1+3	;test result
unittest.asm (2567): error: Unknown Mnemonic 'trap_ne'.
   2567  0aa2					      trap_ne
   2568  0aa4		       68		      pla		;load status
unittest.asm (2569): error: Unknown Mnemonic 'eor_flag'.
   2569  0aa4					      eor_flag	lo~fnz	;mask bits not altered
   2570  0aa5		       cd 20 02 	      cmp	fLDx+3	;test flags
unittest.asm (2571): error: Unknown Mnemonic 'trap_ne'.
   2571  0aa5					      trap_ne
   2572  0aa8
unittest.asm (2573): error: Unknown Mnemonic 'set_stat'.
   2573  0aa8					      set_stat	0
   2574  0aa8		       a2 c3		      ldx	#$c3
   2575  0aaa		       08		      php
   2576  0aab		       ec 18 02 	      cpx	abs1	;test result
unittest.asm (2577): error: Unknown Mnemonic 'trap_ne'.
   2577  0aab					      trap_ne
   2578  0aae		       68		      pla		;load status
unittest.asm (2579): error: Unknown Mnemonic 'eor_flag'.
   2579  0aae					      eor_flag	0
   2580  0aaf		       cd 1d 02 	      cmp	fLDx	;test flags
unittest.asm (2581): error: Unknown Mnemonic 'trap_ne'.
   2581  0aaf					      trap_ne
unittest.asm (2582): error: Unknown Mnemonic 'set_stat'.
   2582  0aaf					      set_stat	0
   2583  0ab2		       a2 82		      ldx	#$82
   2584  0ab4		       08		      php
   2585  0ab5		       ec 19 02 	      cpx	abs1+1	;test result
unittest.asm (2586): error: Unknown Mnemonic 'trap_ne'.
   2586  0ab5					      trap_ne
   2587  0ab8		       68		      pla		;load status
unittest.asm (2588): error: Unknown Mnemonic 'eor_flag'.
   2588  0ab8					      eor_flag	0
   2589  0ab9		       cd 1e 02 	      cmp	fLDx+1	;test flags
unittest.asm (2590): error: Unknown Mnemonic 'trap_ne'.
   2590  0ab9					      trap_ne
unittest.asm (2591): error: Unknown Mnemonic 'set_stat'.
   2591  0ab9					      set_stat	0
   2592  0abc		       a2 41		      ldx	#$41
   2593  0abe		       08		      php
   2594  0abf		       ec 1a 02 	      cpx	abs1+2	;test result
unittest.asm (2595): error: Unknown Mnemonic 'trap_ne'.
   2595  0abf					      trap_ne
   2596  0ac2		       68		      pla		;load status
unittest.asm (2597): error: Unknown Mnemonic 'eor_flag'.
   2597  0ac2					      eor_flag	0
   2598  0ac3		       cd 1f 02 	      cmp	fLDx+2	;test flags
unittest.asm (2599): error: Unknown Mnemonic 'trap_ne'.
   2599  0ac3					      trap_ne
unittest.asm (2600): error: Unknown Mnemonic 'set_stat'.
   2600  0ac3					      set_stat	0
   2601  0ac6		       a2 00		      ldx	#0
   2602  0ac8		       08		      php
   2603  0ac9		       ec 1b 02 	      cpx	abs1+3	;test result
unittest.asm (2604): error: Unknown Mnemonic 'trap_ne'.
   2604  0ac9					      trap_ne
   2605  0acc		       68		      pla		;load status
unittest.asm (2606): error: Unknown Mnemonic 'eor_flag'.
   2606  0acc					      eor_flag	0
   2607  0acd		       cd 20 02 	      cmp	fLDx+3	;test flags
unittest.asm (2608): error: Unknown Mnemonic 'trap_ne'.
   2608  0acd					      trap_ne
   2609  0ad0
unittest.asm (2610): error: Unknown Mnemonic 'set_stat'.
   2610  0ad0					      set_stat	$ff
   2611  0ad0		       a2 c3		      ldx	#$c3
   2612  0ad2		       08		      php
   2613  0ad3		       ec 18 02 	      cpx	abs1	;test result
unittest.asm (2614): error: Unknown Mnemonic 'trap_ne'.
   2614  0ad3					      trap_ne
   2615  0ad6		       68		      pla		;load status
unittest.asm (2616): error: Unknown Mnemonic 'eor_flag'.
   2616  0ad6					      eor_flag	lo~fnz	;mask bits not altered
   2617  0ad7		       cd 1d 02 	      cmp	fLDx	;test flags
unittest.asm (2618): error: Unknown Mnemonic 'trap_ne'.
   2618  0ad7					      trap_ne
unittest.asm (2619): error: Unknown Mnemonic 'set_stat'.
   2619  0ad7					      set_stat	$ff
   2620  0ada		       a2 82		      ldx	#$82
   2621  0adc		       08		      php
   2622  0add		       ec 19 02 	      cpx	abs1+1	;test result
unittest.asm (2623): error: Unknown Mnemonic 'trap_ne'.
   2623  0add					      trap_ne
   2624  0ae0		       68		      pla		;load status
unittest.asm (2625): error: Unknown Mnemonic 'eor_flag'.
   2625  0ae0					      eor_flag	lo~fnz	;mask bits not altered
   2626  0ae1		       cd 1e 02 	      cmp	fLDx+1	;test flags
unittest.asm (2627): error: Unknown Mnemonic 'trap_ne'.
   2627  0ae1					      trap_ne
unittest.asm (2628): error: Unknown Mnemonic 'set_stat'.
   2628  0ae1					      set_stat	$ff
   2629  0ae4		       a2 41		      ldx	#$41
   2630  0ae6		       08		      php
   2631  0ae7		       ec 1a 02 	      cpx	abs1+2	;test result
unittest.asm (2632): error: Unknown Mnemonic 'trap_ne'.
   2632  0ae7					      trap_ne
   2633  0aea		       68		      pla		;load status
unittest.asm (2634): error: Unknown Mnemonic 'eor_flag'.
   2634  0aea					      eor_flag	lo~fnz	;mask bits not altered
   2635  0aeb		       cd 1f 02 	      cmp	fLDx+2	;test flags
unittest.asm (2636): error: Unknown Mnemonic 'trap_ne'.
   2636  0aeb					      trap_ne
unittest.asm (2637): error: Unknown Mnemonic 'set_stat'.
   2637  0aeb					      set_stat	$ff
   2638  0aee		       a2 00		      ldx	#0
   2639  0af0		       08		      php
   2640  0af1		       ec 1b 02 	      cpx	abs1+3	;test result
unittest.asm (2641): error: Unknown Mnemonic 'trap_ne'.
   2641  0af1					      trap_ne
   2642  0af4		       68		      pla		;load status
unittest.asm (2643): error: Unknown Mnemonic 'eor_flag'.
   2643  0af4					      eor_flag	lo~fnz	;mask bits not altered
   2644  0af5		       cd 20 02 	      cmp	fLDx+3	;test flags
unittest.asm (2645): error: Unknown Mnemonic 'trap_ne'.
   2645  0af5					      trap_ne
   2646  0af8
   2647  0af8		       a2 00		      ldx	#0
   2648  0afa		       a5 42		      lda	zpt
   2649  0afc		       49 c3		      eor	#$c3
   2650  0afe		       c5 4b		      cmp	zp1
unittest.asm (2651): error: Unknown Mnemonic 'trap_ne'.
   2651  0afe					      trap_ne		;store to zp data
   2652  0b00		       86 42		      stx	zpt	;clear
   2653  0b02		       ad 03 02 	      lda	abst
   2654  0b05		       49 c3		      eor	#$c3
   2655  0b07		       cd 18 02 	      cmp	abs1
unittest.asm (2656): error: Unknown Mnemonic 'trap_ne'.
   2656  0b07					      trap_ne		;store to abs data
   2657  0b0a		       8e 03 02 	      stx	abst	;clear
   2658  0b0d		       a5 43		      lda	zpt+1
   2659  0b0f		       49 c3		      eor	#$c3
   2660  0b11		       c5 4c		      cmp	zp1+1
unittest.asm (2661): error: Unknown Mnemonic 'trap_ne'.
   2661  0b11					      trap_ne		;store to zp data
   2662  0b13		       86 43		      stx	zpt+1	;clear
   2663  0b15		       ad 04 02 	      lda	abst+1
   2664  0b18		       49 c3		      eor	#$c3
   2665  0b1a		       cd 19 02 	      cmp	abs1+1
unittest.asm (2666): error: Unknown Mnemonic 'trap_ne'.
   2666  0b1a					      trap_ne		;store to abs data
   2667  0b1d		       8e 04 02 	      stx	abst+1	;clear
   2668  0b20		       a5 44		      lda	zpt+2
   2669  0b22		       49 c3		      eor	#$c3
   2670  0b24		       c5 4d		      cmp	zp1+2
unittest.asm (2671): error: Unknown Mnemonic 'trap_ne'.
   2671  0b24					      trap_ne		;store to zp data
   2672  0b26		       86 44		      stx	zpt+2	;clear
   2673  0b28		       ad 05 02 	      lda	abst+2
   2674  0b2b		       49 c3		      eor	#$c3
   2675  0b2d		       cd 1a 02 	      cmp	abs1+2
unittest.asm (2676): error: Unknown Mnemonic 'trap_ne'.
   2676  0b2d					      trap_ne		;store to abs data
   2677  0b30		       8e 05 02 	      stx	abst+2	;clear
   2678  0b33		       a5 45		      lda	zpt+3
   2679  0b35		       49 c3		      eor	#$c3
   2680  0b37		       c5 4e		      cmp	zp1+3
unittest.asm (2681): error: Unknown Mnemonic 'trap_ne'.
   2681  0b37					      trap_ne		;store to zp data
   2682  0b39		       86 45		      stx	zpt+3	;clear
   2683  0b3b		       ad 06 02 	      lda	abst+3
   2684  0b3e		       49 c3		      eor	#$c3
   2685  0b40		       cd 1b 02 	      cmp	abs1+3
unittest.asm (2686): error: Unknown Mnemonic 'trap_ne'.
   2686  0b40					      trap_ne		;store to abs data
   2687  0b43		       8e 06 02 	      stx	abst+3	;clear
unittest.asm (2688): error: Unknown Mnemonic 'next_test'.
   2688  0b43					      next_test
   2689  0b46
   2690  0b46							; LDY / STY - zp / abs / #
unittest.asm (2691): error: Unknown Mnemonic 'set_stat'.
   2691  0b46					      set_stat	0
   2692  0b46		       a4 4b		      ldy	zp1
   2693  0b48		       08		      php		;test stores do not alter flags
   2694  0b49		       98		      tya
   2695  0b4a		       49 c3		      eor	#$c3
   2696  0b4c		       a8		      tay
   2697  0b4d		       28		      plp
   2698  0b4e		       8c 03 02 	      sty	abst
   2699  0b51		       08		      php		;flags after load/store sequence
   2700  0b52		       49 c3		      eor	#$c3
   2701  0b54		       a8		      tay
   2702  0b55		       c0 c3		      cpy	#$c3	;test result
unittest.asm (2703): error: Unknown Mnemonic 'trap_ne'.
   2703  0b55					      trap_ne
   2704  0b57		       68		      pla		;load status
unittest.asm (2705): error: Unknown Mnemonic 'eor_flag'.
   2705  0b57					      eor_flag	0
   2706  0b58		       cd 1d 02 	      cmp	fLDx	;test flags
unittest.asm (2707): error: Unknown Mnemonic 'trap_ne'.
   2707  0b58					      trap_ne
unittest.asm (2708): error: Unknown Mnemonic 'set_stat'.
   2708  0b58					      set_stat	0
   2709  0b5b		       a4 4c		      ldy	zp1+1
   2710  0b5d		       08		      php		;test stores do not alter flags
   2711  0b5e		       98		      tya
   2712  0b5f		       49 c3		      eor	#$c3
   2713  0b61		       a8		      tay
   2714  0b62		       28		      plp
   2715  0b63		       8c 04 02 	      sty	abst+1
   2716  0b66		       08		      php		;flags after load/store sequence
   2717  0b67		       49 c3		      eor	#$c3
   2718  0b69		       a8		      tay
   2719  0b6a		       c0 82		      cpy	#$82	;test result
unittest.asm (2720): error: Unknown Mnemonic 'trap_ne'.
   2720  0b6a					      trap_ne
   2721  0b6c		       68		      pla		;load status
unittest.asm (2722): error: Unknown Mnemonic 'eor_flag'.
   2722  0b6c					      eor_flag	0
   2723  0b6d		       cd 1e 02 	      cmp	fLDx+1	;test flags
unittest.asm (2724): error: Unknown Mnemonic 'trap_ne'.
   2724  0b6d					      trap_ne
unittest.asm (2725): error: Unknown Mnemonic 'set_stat'.
   2725  0b6d					      set_stat	0
   2726  0b70		       a4 4d		      ldy	zp1+2
   2727  0b72		       08		      php		;test stores do not alter flags
   2728  0b73		       98		      tya
   2729  0b74		       49 c3		      eor	#$c3
   2730  0b76		       a8		      tay
   2731  0b77		       28		      plp
   2732  0b78		       8c 05 02 	      sty	abst+2
   2733  0b7b		       08		      php		;flags after load/store sequence
   2734  0b7c		       49 c3		      eor	#$c3
   2735  0b7e		       a8		      tay
   2736  0b7f		       c0 41		      cpy	#$41	;test result
unittest.asm (2737): error: Unknown Mnemonic 'trap_ne'.
   2737  0b7f					      trap_ne
   2738  0b81		       68		      pla		;load status
unittest.asm (2739): error: Unknown Mnemonic 'eor_flag'.
   2739  0b81					      eor_flag	0
   2740  0b82		       cd 1f 02 	      cmp	fLDx+2	;test flags
unittest.asm (2741): error: Unknown Mnemonic 'trap_ne'.
   2741  0b82					      trap_ne
unittest.asm (2742): error: Unknown Mnemonic 'set_stat'.
   2742  0b82					      set_stat	0
   2743  0b85		       a4 4e		      ldy	zp1+3
   2744  0b87		       08		      php		;test stores do not alter flags
   2745  0b88		       98		      tya
   2746  0b89		       49 c3		      eor	#$c3
   2747  0b8b		       a8		      tay
   2748  0b8c		       28		      plp
   2749  0b8d		       8c 06 02 	      sty	abst+3
   2750  0b90		       08		      php		;flags after load/store sequence
   2751  0b91		       49 c3		      eor	#$c3
   2752  0b93		       a8		      tay
   2753  0b94		       c0 00		      cpy	#0	;test result
unittest.asm (2754): error: Unknown Mnemonic 'trap_ne'.
   2754  0b94					      trap_ne
   2755  0b96		       68		      pla		;load status
unittest.asm (2756): error: Unknown Mnemonic 'eor_flag'.
   2756  0b96					      eor_flag	0
   2757  0b97		       cd 20 02 	      cmp	fLDx+3	;test flags
unittest.asm (2758): error: Unknown Mnemonic 'trap_ne'.
   2758  0b97					      trap_ne
   2759  0b9a
unittest.asm (2760): error: Unknown Mnemonic 'set_stat'.
   2760  0b9a					      set_stat	$ff
   2761  0b9a		       a4 4b		      ldy	zp1
   2762  0b9c		       08		      php		;test stores do not alter flags
   2763  0b9d		       98		      tya
   2764  0b9e		       49 c3		      eor	#$c3
   2765  0ba0		       a8		      tay
   2766  0ba1		       28		      plp
   2767  0ba2		       8c 03 02 	      sty	abst
   2768  0ba5		       08		      php		;flags after load/store sequence
   2769  0ba6		       49 c3		      eor	#$c3
   2770  0ba8		       a8		      tay
   2771  0ba9		       c0 c3		      cpy	#$c3	;test result
unittest.asm (2772): error: Unknown Mnemonic 'trap_ne'.
   2772  0ba9					      trap_ne
   2773  0bab		       68		      pla		;load status
unittest.asm (2774): error: Unknown Mnemonic 'eor_flag'.
   2774  0bab					      eor_flag	lo~fnz	;mask bits not altered
   2775  0bac		       cd 1d 02 	      cmp	fLDx	;test flags
unittest.asm (2776): error: Unknown Mnemonic 'trap_ne'.
   2776  0bac					      trap_ne
unittest.asm (2777): error: Unknown Mnemonic 'set_stat'.
   2777  0bac					      set_stat	$ff
   2778  0baf		       a4 4c		      ldy	zp1+1
   2779  0bb1		       08		      php		;test stores do not alter flags
   2780  0bb2		       98		      tya
   2781  0bb3		       49 c3		      eor	#$c3
   2782  0bb5		       a8		      tay
   2783  0bb6		       28		      plp
   2784  0bb7		       8c 04 02 	      sty	abst+1
   2785  0bba		       08		      php		;flags after load/store sequence
   2786  0bbb		       49 c3		      eor	#$c3
   2787  0bbd		       a8		      tay
   2788  0bbe		       c0 82		      cpy	#$82	;test result
unittest.asm (2789): error: Unknown Mnemonic 'trap_ne'.
   2789  0bbe					      trap_ne
   2790  0bc0		       68		      pla		;load status
unittest.asm (2791): error: Unknown Mnemonic 'eor_flag'.
   2791  0bc0					      eor_flag	lo~fnz	;mask bits not altered
   2792  0bc1		       cd 1e 02 	      cmp	fLDx+1	;test flags
unittest.asm (2793): error: Unknown Mnemonic 'trap_ne'.
   2793  0bc1					      trap_ne
unittest.asm (2794): error: Unknown Mnemonic 'set_stat'.
   2794  0bc1					      set_stat	$ff
   2795  0bc4		       a4 4d		      ldy	zp1+2
   2796  0bc6		       08		      php		;test stores do not alter flags
   2797  0bc7		       98		      tya
   2798  0bc8		       49 c3		      eor	#$c3
   2799  0bca		       a8		      tay
   2800  0bcb		       28		      plp
   2801  0bcc		       8c 05 02 	      sty	abst+2
   2802  0bcf		       08		      php		;flags after load/store sequence
   2803  0bd0		       49 c3		      eor	#$c3
   2804  0bd2		       a8		      tay
   2805  0bd3		       c0 41		      cpy	#$41	;test result
unittest.asm (2806): error: Unknown Mnemonic 'trap_ne'.
   2806  0bd3					      trap_ne
   2807  0bd5		       68		      pla		;load status
unittest.asm (2808): error: Unknown Mnemonic 'eor_flag'.
   2808  0bd5					      eor_flag	lo~fnz	;mask bits not altered
   2809  0bd6		       cd 1f 02 	      cmp	fLDx+2	;test flags
unittest.asm (2810): error: Unknown Mnemonic 'trap_ne'.
   2810  0bd6					      trap_ne
unittest.asm (2811): error: Unknown Mnemonic 'set_stat'.
   2811  0bd6					      set_stat	$ff
   2812  0bd9		       a4 4e		      ldy	zp1+3
   2813  0bdb		       08		      php		;test stores do not alter flags
   2814  0bdc		       98		      tya
   2815  0bdd		       49 c3		      eor	#$c3
   2816  0bdf		       a8		      tay
   2817  0be0		       28		      plp
   2818  0be1		       8c 06 02 	      sty	abst+3
   2819  0be4		       08		      php		;flags after load/store sequence
   2820  0be5		       49 c3		      eor	#$c3
   2821  0be7		       a8		      tay
   2822  0be8		       c0 00		      cpy	#0	;test result
unittest.asm (2823): error: Unknown Mnemonic 'trap_ne'.
   2823  0be8					      trap_ne
   2824  0bea		       68		      pla		;load status
unittest.asm (2825): error: Unknown Mnemonic 'eor_flag'.
   2825  0bea					      eor_flag	lo~fnz	;mask bits not altered
   2826  0beb		       cd 20 02 	      cmp	fLDx+3	;test flags
unittest.asm (2827): error: Unknown Mnemonic 'trap_ne'.
   2827  0beb					      trap_ne
   2828  0bee
unittest.asm (2829): error: Unknown Mnemonic 'set_stat'.
   2829  0bee					      set_stat	0
   2830  0bee		       ac 18 02 	      ldy	abs1
   2831  0bf1		       08		      php		;test stores do not alter flags
   2832  0bf2		       98		      tya
   2833  0bf3		       49 c3		      eor	#$c3
   2834  0bf5		       a8		      tay
   2835  0bf6		       28		      plp
   2836  0bf7		       84 42		      sty	zpt
   2837  0bf9		       08		      php		;flags after load/store sequence
   2838  0bfa		       49 c3		      eor	#$c3
   2839  0bfc		       a8		      tay
   2840  0bfd		       c4 4b		      cpy	zp1	;test result
unittest.asm (2841): error: Unknown Mnemonic 'trap_ne'.
   2841  0bfd					      trap_ne
   2842  0bff		       68		      pla		;load status
unittest.asm (2843): error: Unknown Mnemonic 'eor_flag'.
   2843  0bff					      eor_flag	0
   2844  0c00		       cd 1d 02 	      cmp	fLDx	;test flags
unittest.asm (2845): error: Unknown Mnemonic 'trap_ne'.
   2845  0c00					      trap_ne
unittest.asm (2846): error: Unknown Mnemonic 'set_stat'.
   2846  0c00					      set_stat	0
   2847  0c03		       ac 19 02 	      ldy	abs1+1
   2848  0c06		       08		      php		;test stores do not alter flags
   2849  0c07		       98		      tya
   2850  0c08		       49 c3		      eor	#$c3
   2851  0c0a		       a8		      tay
   2852  0c0b		       28		      plp
   2853  0c0c		       84 43		      sty	zpt+1
   2854  0c0e		       08		      php		;flags after load/store sequence
   2855  0c0f		       49 c3		      eor	#$c3
   2856  0c11		       a8		      tay
   2857  0c12		       c4 4c		      cpy	zp1+1	;test result
unittest.asm (2858): error: Unknown Mnemonic 'trap_ne'.
   2858  0c12					      trap_ne
   2859  0c14		       68		      pla		;load status
unittest.asm (2860): error: Unknown Mnemonic 'eor_flag'.
   2860  0c14					      eor_flag	0
   2861  0c15		       cd 1e 02 	      cmp	fLDx+1	;test flags
unittest.asm (2862): error: Unknown Mnemonic 'trap_ne'.
   2862  0c15					      trap_ne
unittest.asm (2863): error: Unknown Mnemonic 'set_stat'.
   2863  0c15					      set_stat	0
   2864  0c18		       ac 1a 02 	      ldy	abs1+2
   2865  0c1b		       08		      php		;test stores do not alter flags
   2866  0c1c		       98		      tya
   2867  0c1d		       49 c3		      eor	#$c3
   2868  0c1f		       a8		      tay
   2869  0c20		       28		      plp
   2870  0c21		       84 44		      sty	zpt+2
   2871  0c23		       08		      php		;flags after load/store sequence
   2872  0c24		       49 c3		      eor	#$c3
   2873  0c26		       a8		      tay
   2874  0c27		       c4 4d		      cpy	zp1+2	;test result
unittest.asm (2875): error: Unknown Mnemonic 'trap_ne'.
   2875  0c27					      trap_ne
   2876  0c29		       68		      pla		;load status
unittest.asm (2877): error: Unknown Mnemonic 'eor_flag'.
   2877  0c29					      eor_flag	0
   2878  0c2a		       cd 1f 02 	      cmp	fLDx+2	;test flags
unittest.asm (2879): error: Unknown Mnemonic 'trap_ne'.
   2879  0c2a					      trap_ne
unittest.asm (2880): error: Unknown Mnemonic 'set_stat'.
   2880  0c2a					      set_stat	0
   2881  0c2d		       ac 1b 02 	      ldy	abs1+3
   2882  0c30		       08		      php		;test stores do not alter flags
   2883  0c31		       98		      tya
   2884  0c32		       49 c3		      eor	#$c3
   2885  0c34		       a8		      tay
   2886  0c35		       28		      plp
   2887  0c36		       84 45		      sty	zpt+3
   2888  0c38		       08		      php		;flags after load/store sequence
   2889  0c39		       49 c3		      eor	#$c3
   2890  0c3b		       a8		      tay
   2891  0c3c		       c4 4e		      cpy	zp1+3	;test result
unittest.asm (2892): error: Unknown Mnemonic 'trap_ne'.
   2892  0c3c					      trap_ne
   2893  0c3e		       68		      pla		;load status
unittest.asm (2894): error: Unknown Mnemonic 'eor_flag'.
   2894  0c3e					      eor_flag	0
   2895  0c3f		       cd 20 02 	      cmp	fLDx+3	;test flags
unittest.asm (2896): error: Unknown Mnemonic 'trap_ne'.
   2896  0c3f					      trap_ne
   2897  0c42
unittest.asm (2898): error: Unknown Mnemonic 'set_stat'.
   2898  0c42					      set_stat	$ff
   2899  0c42		       ac 18 02 	      ldy	abs1
   2900  0c45		       08		      php		;test stores do not alter flags
   2901  0c46		       98		      tya
   2902  0c47		       49 c3		      eor	#$c3
   2903  0c49		       a8		      tay
   2904  0c4a		       28		      plp
   2905  0c4b		       84 42		      sty	zpt
   2906  0c4d		       08		      php		;flags after load/store sequence
   2907  0c4e		       49 c3		      eor	#$c3
   2908  0c50		       a8		      tay
   2909  0c51		       c5 4b		      cmp	zp1	;test result
unittest.asm (2910): error: Unknown Mnemonic 'trap_ne'.
   2910  0c51					      trap_ne
   2911  0c53		       68		      pla		;load status
unittest.asm (2912): error: Unknown Mnemonic 'eor_flag'.
   2912  0c53					      eor_flag	lo~fnz	;mask bits not altered
   2913  0c54		       cd 1d 02 	      cmp	fLDx	;test flags
unittest.asm (2914): error: Unknown Mnemonic 'trap_ne'.
   2914  0c54					      trap_ne
unittest.asm (2915): error: Unknown Mnemonic 'set_stat'.
   2915  0c54					      set_stat	$ff
   2916  0c57		       ac 19 02 	      ldy	abs1+1
   2917  0c5a		       08		      php		;test stores do not alter flags
   2918  0c5b		       98		      tya
   2919  0c5c		       49 c3		      eor	#$c3
   2920  0c5e		       a8		      tay
   2921  0c5f		       28		      plp
   2922  0c60		       84 43		      sty	zpt+1
   2923  0c62		       08		      php		;flags after load/store sequence
   2924  0c63		       49 c3		      eor	#$c3
   2925  0c65		       a8		      tay
   2926  0c66		       c5 4c		      cmp	zp1+1	;test result
unittest.asm (2927): error: Unknown Mnemonic 'trap_ne'.
   2927  0c66					      trap_ne
   2928  0c68		       68		      pla		;load status
unittest.asm (2929): error: Unknown Mnemonic 'eor_flag'.
   2929  0c68					      eor_flag	lo~fnz	;mask bits not altered
   2930  0c69		       cd 1e 02 	      cmp	fLDx+1	;test flags
unittest.asm (2931): error: Unknown Mnemonic 'trap_ne'.
   2931  0c69					      trap_ne
unittest.asm (2932): error: Unknown Mnemonic 'set_stat'.
   2932  0c69					      set_stat	$ff
   2933  0c6c		       ac 1a 02 	      ldy	abs1+2
   2934  0c6f		       08		      php		;test stores do not alter flags
   2935  0c70		       98		      tya
   2936  0c71		       49 c3		      eor	#$c3
   2937  0c73		       a8		      tay
   2938  0c74		       28		      plp
   2939  0c75		       84 44		      sty	zpt+2
   2940  0c77		       08		      php		;flags after load/store sequence
   2941  0c78		       49 c3		      eor	#$c3
   2942  0c7a		       a8		      tay
   2943  0c7b		       c5 4d		      cmp	zp1+2	;test result
unittest.asm (2944): error: Unknown Mnemonic 'trap_ne'.
   2944  0c7b					      trap_ne
   2945  0c7d		       68		      pla		;load status
unittest.asm (2946): error: Unknown Mnemonic 'eor_flag'.
   2946  0c7d					      eor_flag	lo~fnz	;mask bits not altered
   2947  0c7e		       cd 1f 02 	      cmp	fLDx+2	;test flags
unittest.asm (2948): error: Unknown Mnemonic 'trap_ne'.
   2948  0c7e					      trap_ne
unittest.asm (2949): error: Unknown Mnemonic 'set_stat'.
   2949  0c7e					      set_stat	$ff
   2950  0c81		       ac 1b 02 	      ldy	abs1+3
   2951  0c84		       08		      php		;test stores do not alter flags
   2952  0c85		       98		      tya
   2953  0c86		       49 c3		      eor	#$c3
   2954  0c88		       a8		      tay
   2955  0c89		       28		      plp
   2956  0c8a		       84 45		      sty	zpt+3
   2957  0c8c		       08		      php		;flags after load/store sequence
   2958  0c8d		       49 c3		      eor	#$c3
   2959  0c8f		       a8		      tay
   2960  0c90		       c5 4e		      cmp	zp1+3	;test result
unittest.asm (2961): error: Unknown Mnemonic 'trap_ne'.
   2961  0c90					      trap_ne
   2962  0c92		       68		      pla		;load status
unittest.asm (2963): error: Unknown Mnemonic 'eor_flag'.
   2963  0c92					      eor_flag	lo~fnz	;mask bits not altered
   2964  0c93		       cd 20 02 	      cmp	fLDx+3	;test flags
unittest.asm (2965): error: Unknown Mnemonic 'trap_ne'.
   2965  0c93					      trap_ne
   2966  0c96
   2967  0c96
unittest.asm (2968): error: Unknown Mnemonic 'set_stat'.
   2968  0c96					      set_stat	0
   2969  0c96		       a0 c3		      ldy	#$c3
   2970  0c98		       08		      php
   2971  0c99		       cc 18 02 	      cpy	abs1	;test result
unittest.asm (2972): error: Unknown Mnemonic 'trap_ne'.
   2972  0c99					      trap_ne
   2973  0c9c		       68		      pla		;load status
unittest.asm (2974): error: Unknown Mnemonic 'eor_flag'.
   2974  0c9c					      eor_flag	0
   2975  0c9d		       cd 1d 02 	      cmp	fLDx	;test flags
unittest.asm (2976): error: Unknown Mnemonic 'trap_ne'.
   2976  0c9d					      trap_ne
unittest.asm (2977): error: Unknown Mnemonic 'set_stat'.
   2977  0c9d					      set_stat	0
   2978  0ca0		       a0 82		      ldy	#$82
   2979  0ca2		       08		      php
   2980  0ca3		       cc 19 02 	      cpy	abs1+1	;test result
unittest.asm (2981): error: Unknown Mnemonic 'trap_ne'.
   2981  0ca3					      trap_ne
   2982  0ca6		       68		      pla		;load status
unittest.asm (2983): error: Unknown Mnemonic 'eor_flag'.
   2983  0ca6					      eor_flag	0
   2984  0ca7		       cd 1e 02 	      cmp	fLDx+1	;test flags
unittest.asm (2985): error: Unknown Mnemonic 'trap_ne'.
   2985  0ca7					      trap_ne
unittest.asm (2986): error: Unknown Mnemonic 'set_stat'.
   2986  0ca7					      set_stat	0
   2987  0caa		       a0 41		      ldy	#$41
   2988  0cac		       08		      php
   2989  0cad		       cc 1a 02 	      cpy	abs1+2	;test result
unittest.asm (2990): error: Unknown Mnemonic 'trap_ne'.
   2990  0cad					      trap_ne
   2991  0cb0		       68		      pla		;load status
unittest.asm (2992): error: Unknown Mnemonic 'eor_flag'.
   2992  0cb0					      eor_flag	0
   2993  0cb1		       cd 1f 02 	      cmp	fLDx+2	;test flags
unittest.asm (2994): error: Unknown Mnemonic 'trap_ne'.
   2994  0cb1					      trap_ne
unittest.asm (2995): error: Unknown Mnemonic 'set_stat'.
   2995  0cb1					      set_stat	0
   2996  0cb4		       a0 00		      ldy	#0
   2997  0cb6		       08		      php
   2998  0cb7		       cc 1b 02 	      cpy	abs1+3	;test result
unittest.asm (2999): error: Unknown Mnemonic 'trap_ne'.
   2999  0cb7					      trap_ne
   3000  0cba		       68		      pla		;load status
unittest.asm (3001): error: Unknown Mnemonic 'eor_flag'.
   3001  0cba					      eor_flag	0
   3002  0cbb		       cd 20 02 	      cmp	fLDx+3	;test flags
unittest.asm (3003): error: Unknown Mnemonic 'trap_ne'.
   3003  0cbb					      trap_ne
   3004  0cbe
unittest.asm (3005): error: Unknown Mnemonic 'set_stat'.
   3005  0cbe					      set_stat	$ff
   3006  0cbe		       a0 c3		      ldy	#$c3
   3007  0cc0		       08		      php
   3008  0cc1		       cc 18 02 	      cpy	abs1	;test result
unittest.asm (3009): error: Unknown Mnemonic 'trap_ne'.
   3009  0cc1					      trap_ne
   3010  0cc4		       68		      pla		;load status
unittest.asm (3011): error: Unknown Mnemonic 'eor_flag'.
   3011  0cc4					      eor_flag	lo~fnz	;mask bits not altered
   3012  0cc5		       cd 1d 02 	      cmp	fLDx	;test flags
unittest.asm (3013): error: Unknown Mnemonic 'trap_ne'.
   3013  0cc5					      trap_ne
unittest.asm (3014): error: Unknown Mnemonic 'set_stat'.
   3014  0cc5					      set_stat	$ff
   3015  0cc8		       a0 82		      ldy	#$82
   3016  0cca		       08		      php
   3017  0ccb		       cc 19 02 	      cpy	abs1+1	;test result
unittest.asm (3018): error: Unknown Mnemonic 'trap_ne'.
   3018  0ccb					      trap_ne
   3019  0cce		       68		      pla		;load status
unittest.asm (3020): error: Unknown Mnemonic 'eor_flag'.
   3020  0cce					      eor_flag	lo~fnz	;mask bits not altered
   3021  0ccf		       cd 1e 02 	      cmp	fLDx+1	;test flags
unittest.asm (3022): error: Unknown Mnemonic 'trap_ne'.
   3022  0ccf					      trap_ne
unittest.asm (3023): error: Unknown Mnemonic 'set_stat'.
   3023  0ccf					      set_stat	$ff
   3024  0cd2		       a0 41		      ldy	#$41
   3025  0cd4		       08		      php
   3026  0cd5		       cc 1a 02 	      cpy	abs1+2	;test result
unittest.asm (3027): error: Unknown Mnemonic 'trap_ne'.
   3027  0cd5					      trap_ne
   3028  0cd8		       68		      pla		;load status
unittest.asm (3029): error: Unknown Mnemonic 'eor_flag'.
   3029  0cd8					      eor_flag	lo~fnz	;mask bits not altered
   3030  0cd9		       cd 1f 02 	      cmp	fLDx+2	;test flags
unittest.asm (3031): error: Unknown Mnemonic 'trap_ne'.
   3031  0cd9					      trap_ne
unittest.asm (3032): error: Unknown Mnemonic 'set_stat'.
   3032  0cd9					      set_stat	$ff
   3033  0cdc		       a0 00		      ldy	#0
   3034  0cde		       08		      php
   3035  0cdf		       cc 1b 02 	      cpy	abs1+3	;test result
unittest.asm (3036): error: Unknown Mnemonic 'trap_ne'.
   3036  0cdf					      trap_ne
   3037  0ce2		       68		      pla		;load status
unittest.asm (3038): error: Unknown Mnemonic 'eor_flag'.
   3038  0ce2					      eor_flag	lo~fnz	;mask bits not altered
   3039  0ce3		       cd 20 02 	      cmp	fLDx+3	;test flags
unittest.asm (3040): error: Unknown Mnemonic 'trap_ne'.
   3040  0ce3					      trap_ne
   3041  0ce6
   3042  0ce6		       a0 00		      ldy	#0
   3043  0ce8		       a5 42		      lda	zpt
   3044  0cea		       49 c3		      eor	#$c3
   3045  0cec		       c5 4b		      cmp	zp1
unittest.asm (3046): error: Unknown Mnemonic 'trap_ne'.
   3046  0cec					      trap_ne		;store to zp	data
   3047  0cee		       84 42		      sty	zpt	;clear
   3048  0cf0		       ad 03 02 	      lda	abst
   3049  0cf3		       49 c3		      eor	#$c3
   3050  0cf5		       cd 18 02 	      cmp	abs1
unittest.asm (3051): error: Unknown Mnemonic 'trap_ne'.
   3051  0cf5					      trap_ne		;store to abs	 data
   3052  0cf8		       8c 03 02 	      sty	abst	;clear
   3053  0cfb		       a5 43		      lda	zpt+1
   3054  0cfd		       49 c3		      eor	#$c3
   3055  0cff		       c5 4c		      cmp	zp1+1
unittest.asm (3056): error: Unknown Mnemonic 'trap_ne'.
   3056  0cff					      trap_ne		;store to zp+1 data
   3057  0d01		       84 43		      sty	zpt+1	;clear
   3058  0d03		       ad 04 02 	      lda	abst+1
   3059  0d06		       49 c3		      eor	#$c3
   3060  0d08		       cd 19 02 	      cmp	abs1+1
unittest.asm (3061): error: Unknown Mnemonic 'trap_ne'.
   3061  0d08					      trap_ne		;store to abs+1 data
   3062  0d0b		       8c 04 02 	      sty	abst+1	;clear
   3063  0d0e		       a5 44		      lda	zpt+2
   3064  0d10		       49 c3		      eor	#$c3
   3065  0d12		       c5 4d		      cmp	zp1+2
unittest.asm (3066): error: Unknown Mnemonic 'trap_ne'.
   3066  0d12					      trap_ne		;store to zp+2 data
   3067  0d14		       84 44		      sty	zpt+2	;clear
   3068  0d16		       ad 05 02 	      lda	abst+2
   3069  0d19		       49 c3		      eor	#$c3
   3070  0d1b		       cd 1a 02 	      cmp	abs1+2
unittest.asm (3071): error: Unknown Mnemonic 'trap_ne'.
   3071  0d1b					      trap_ne		;store to abs+2 data
   3072  0d1e		       8c 05 02 	      sty	abst+2	;clear
   3073  0d21		       a5 45		      lda	zpt+3
   3074  0d23		       49 c3		      eor	#$c3
   3075  0d25		       c5 4e		      cmp	zp1+3
unittest.asm (3076): error: Unknown Mnemonic 'trap_ne'.
   3076  0d25					      trap_ne		;store to zp+3 data
   3077  0d27		       84 45		      sty	zpt+3	;clear
   3078  0d29		       ad 06 02 	      lda	abst+3
   3079  0d2c		       49 c3		      eor	#$c3
   3080  0d2e		       cd 1b 02 	      cmp	abs1+3
unittest.asm (3081): error: Unknown Mnemonic 'trap_ne'.
   3081  0d2e					      trap_ne		;store to abs+3 data
   3082  0d31		       8c 06 02 	      sty	abst+3	;clear
unittest.asm (3083): error: Unknown Mnemonic 'next_test'.
   3083  0d31					      next_test
   3084  0d34
   3085  0d34							; testing load / store accumulator LDA / STA all addressing modes
   3086  0d34							; LDA / STA - zp,x / abs,x
   3087  0d34		       a2 03		      ldx	#3
   3088  0d36				   tldax
unittest.asm (3089): error: Unknown Mnemonic 'set_stat'.
   3089  0d36					      set_stat	0
   3090  0d36		       b5 4b		      lda	zp1,x
   3091  0d38		       08		      php		;test stores do not alter flags
   3092  0d39		       49 c3		      eor	#$c3
   3093  0d3b		       28		      plp
   3094  0d3c		       9d 03 02 	      sta	abst,x
   3095  0d3f		       08		      php		;flags after load/store sequence
   3096  0d40		       49 c3		      eor	#$c3
   3097  0d42		       dd 18 02 	      cmp	abs1,x	;test result
unittest.asm (3098): error: Unknown Mnemonic 'trap_ne'.
   3098  0d42					      trap_ne
   3099  0d45		       68		      pla		;load status
unittest.asm (3100): error: Unknown Mnemonic 'eor_flag'.
   3100  0d45					      eor_flag	0
   3101  0d46		       dd 1d 02 	      cmp	fLDx,x	;test flags
unittest.asm (3102): error: Unknown Mnemonic 'trap_ne'.
   3102  0d46					      trap_ne
   3103  0d49		       ca		      dex
   3104  0d4a		       10 ea		      bpl	tldax
   3105  0d4c
   3106  0d4c		       a2 03		      ldx	#3
   3107  0d4e				   tldax1
unittest.asm (3108): error: Unknown Mnemonic 'set_stat'.
   3108  0d4e					      set_stat	$ff
   3109  0d4e		       b5 4b		      lda	zp1,x
   3110  0d50		       08		      php		;test stores do not alter flags
   3111  0d51		       49 c3		      eor	#$c3
   3112  0d53		       28		      plp
   3113  0d54		       9d 03 02 	      sta	abst,x
   3114  0d57		       08		      php		;flags after load/store sequence
   3115  0d58		       49 c3		      eor	#$c3
   3116  0d5a		       dd 18 02 	      cmp	abs1,x	;test result
unittest.asm (3117): error: Unknown Mnemonic 'trap_ne'.
   3117  0d5a					      trap_ne
   3118  0d5d		       68		      pla		;load status
unittest.asm (3119): error: Unknown Mnemonic 'eor_flag'.
   3119  0d5d					      eor_flag	lo~fnz	;mask bits not altered
   3120  0d5e		       dd 1d 02 	      cmp	fLDx,x	;test flags
unittest.asm (3121): error: Unknown Mnemonic 'trap_ne'.
   3121  0d5e					      trap_ne
   3122  0d61		       ca		      dex
   3123  0d62		       10 ea		      bpl	tldax1
   3124  0d64
   3125  0d64		       a2 03		      ldx	#3
   3126  0d66				   tldax2
unittest.asm (3127): error: Unknown Mnemonic 'set_stat'.
   3127  0d66					      set_stat	0
   3128  0d66		       bd 18 02 	      lda	abs1,x
   3129  0d69		       08		      php		;test stores do not alter flags
   3130  0d6a		       49 c3		      eor	#$c3
   3131  0d6c		       28		      plp
   3132  0d6d		       95 42		      sta	zpt,x
   3133  0d6f		       08		      php		;flags after load/store sequence
   3134  0d70		       49 c3		      eor	#$c3
   3135  0d72		       d5 4b		      cmp	zp1,x	;test result
unittest.asm (3136): error: Unknown Mnemonic 'trap_ne'.
   3136  0d72					      trap_ne
   3137  0d74		       68		      pla		;load status
unittest.asm (3138): error: Unknown Mnemonic 'eor_flag'.
   3138  0d74					      eor_flag	0
   3139  0d75		       dd 1d 02 	      cmp	fLDx,x	;test flags
unittest.asm (3140): error: Unknown Mnemonic 'trap_ne'.
   3140  0d75					      trap_ne
   3141  0d78		       ca		      dex
   3142  0d79		       10 eb		      bpl	tldax2
   3143  0d7b
   3144  0d7b		       a2 03		      ldx	#3
   3145  0d7d				   tldax3
unittest.asm (3146): error: Unknown Mnemonic 'set_stat'.
   3146  0d7d					      set_stat	$ff
   3147  0d7d		       bd 18 02 	      lda	abs1,x
   3148  0d80		       08		      php		;test stores do not alter flags
   3149  0d81		       49 c3		      eor	#$c3
   3150  0d83		       28		      plp
   3151  0d84		       95 42		      sta	zpt,x
   3152  0d86		       08		      php		;flags after load/store sequence
   3153  0d87		       49 c3		      eor	#$c3
   3154  0d89		       d5 4b		      cmp	zp1,x	;test result
unittest.asm (3155): error: Unknown Mnemonic 'trap_ne'.
   3155  0d89					      trap_ne
   3156  0d8b		       68		      pla		;load status
unittest.asm (3157): error: Unknown Mnemonic 'eor_flag'.
   3157  0d8b					      eor_flag	lo~fnz	;mask bits not altered
   3158  0d8c		       dd 1d 02 	      cmp	fLDx,x	;test flags
unittest.asm (3159): error: Unknown Mnemonic 'trap_ne'.
   3159  0d8c					      trap_ne
   3160  0d8f		       ca		      dex
   3161  0d90		       10 eb		      bpl	tldax3
   3162  0d92
   3163  0d92		       a2 03		      ldx	#3	;testing store result
   3164  0d94		       a0 00		      ldy	#0
   3165  0d96		       b5 42	   tstax      lda	zpt,x
   3166  0d98		       49 c3		      eor	#$c3
   3167  0d9a		       d5 4b		      cmp	zp1,x
unittest.asm (3168): error: Unknown Mnemonic 'trap_ne'.
   3168  0d9a					      trap_ne		;store to zp,x data
   3169  0d9c		       94 42		      sty	zpt,x	;clear
   3170  0d9e		       bd 03 02 	      lda	abst,x
   3171  0da1		       49 c3		      eor	#$c3
   3172  0da3		       dd 18 02 	      cmp	abs1,x
unittest.asm (3173): error: Unknown Mnemonic 'trap_ne'.
   3173  0da3					      trap_ne		;store to abs,x data
   3174  0da6		       8a		      txa
   3175  0da7		       9d 03 02 	      sta	abst,x	;clear
   3176  0daa		       ca		      dex
   3177  0dab		       10 e9		      bpl	tstax
unittest.asm (3178): error: Unknown Mnemonic 'next_test'.
   3178  0dab					      next_test
   3179  0dad
   3180  0dad							; LDA / STA - (zp),y / abs,y / (zp,x)
   3181  0dad		       a0 03		      ldy	#3
   3182  0daf				   tlday
unittest.asm (3183): error: Unknown Mnemonic 'set_stat'.
   3183  0daf					      set_stat	0
   3184  0daf		       b1 5c		      lda	(ind1),y
   3185  0db1		       08		      php		;test stores do not alter flags
   3186  0db2		       49 c3		      eor	#$c3
   3187  0db4		       28		      plp
   3188  0db5		       99 03 02 	      sta	abst,y
   3189  0db8		       08		      php		;flags after load/store sequence
   3190  0db9		       49 c3		      eor	#$c3
   3191  0dbb		       d9 18 02 	      cmp	abs1,y	;test result
unittest.asm (3192): error: Unknown Mnemonic 'trap_ne'.
   3192  0dbb					      trap_ne
   3193  0dbe		       68		      pla		;load status
unittest.asm (3194): error: Unknown Mnemonic 'eor_flag'.
   3194  0dbe					      eor_flag	0
   3195  0dbf		       d9 1d 02 	      cmp	fLDx,y	;test flags
unittest.asm (3196): error: Unknown Mnemonic 'trap_ne'.
   3196  0dbf					      trap_ne
   3197  0dc2		       88		      dey
   3198  0dc3		       10 ea		      bpl	tlday
   3199  0dc5
   3200  0dc5		       a0 03		      ldy	#3
   3201  0dc7				   tlday1
unittest.asm (3202): error: Unknown Mnemonic 'set_stat'.
   3202  0dc7					      set_stat	$ff
   3203  0dc7		       b1 5c		      lda	(ind1),y
   3204  0dc9		       08		      php		;test stores do not alter flags
   3205  0dca		       49 c3		      eor	#$c3
   3206  0dcc		       28		      plp
   3207  0dcd		       99 03 02 	      sta	abst,y
   3208  0dd0		       08		      php		;flags after load/store sequence
   3209  0dd1		       49 c3		      eor	#$c3
   3210  0dd3		       d9 18 02 	      cmp	abs1,y	;test result
unittest.asm (3211): error: Unknown Mnemonic 'trap_ne'.
   3211  0dd3					      trap_ne
   3212  0dd6		       68		      pla		;load status
unittest.asm (3213): error: Unknown Mnemonic 'eor_flag'.
   3213  0dd6					      eor_flag	lo~fnz	;mask bits not altered
   3214  0dd7		       d9 1d 02 	      cmp	fLDx,y	;test flags
unittest.asm (3215): error: Unknown Mnemonic 'trap_ne'.
   3215  0dd7					      trap_ne
   3216  0dda		       88		      dey
   3217  0ddb		       10 ea		      bpl	tlday1
   3218  0ddd
   3219  0ddd		       a0 03		      ldy	#3	;testing store result
   3220  0ddf		       a2 00		      ldx	#0
   3221  0de1		       b9 03 02    tstay      lda	abst,y
   3222  0de4		       49 c3		      eor	#$c3
   3223  0de6		       d9 18 02 	      cmp	abs1,y
unittest.asm (3224): error: Unknown Mnemonic 'trap_ne'.
   3224  0de6					      trap_ne		;store to abs data
   3225  0de9		       8a		      txa
   3226  0dea		       99 03 02 	      sta	abst,y	;clear
   3227  0ded		       88		      dey
   3228  0dee		       10 f1		      bpl	tstay
   3229  0df0
   3230  0df0		       a0 03		      ldy	#3
   3231  0df2				   tlday2
unittest.asm (3232): error: Unknown Mnemonic 'set_stat'.
   3232  0df2					      set_stat	0
   3233  0df2		       b9 18 02 	      lda	abs1,y
   3234  0df5		       08		      php		;test stores do not alter flags
   3235  0df6		       49 c3		      eor	#$c3
   3236  0df8		       28		      plp
   3237  0df9		       91 68		      sta	(indt),y
   3238  0dfb		       08		      php		;flags after load/store sequence
   3239  0dfc		       49 c3		      eor	#$c3
   3240  0dfe		       d1 5c		      cmp	(ind1),y	;test result
unittest.asm (3241): error: Unknown Mnemonic 'trap_ne'.
   3241  0dfe					      trap_ne
   3242  0e00		       68		      pla		;load status
unittest.asm (3243): error: Unknown Mnemonic 'eor_flag'.
   3243  0e00					      eor_flag	0
   3244  0e01		       d9 1d 02 	      cmp	fLDx,y	;test flags
unittest.asm (3245): error: Unknown Mnemonic 'trap_ne'.
   3245  0e01					      trap_ne
   3246  0e04		       88		      dey
   3247  0e05		       10 eb		      bpl	tlday2
   3248  0e07
   3249  0e07		       a0 03		      ldy	#3
   3250  0e09				   tlday3
unittest.asm (3251): error: Unknown Mnemonic 'set_stat'.
   3251  0e09					      set_stat	$ff
   3252  0e09		       b9 18 02 	      lda	abs1,y
   3253  0e0c		       08		      php		;test stores do not alter flags
   3254  0e0d		       49 c3		      eor	#$c3
   3255  0e0f		       28		      plp
   3256  0e10		       91 68		      sta	(indt),y
   3257  0e12		       08		      php		;flags after load/store sequence
   3258  0e13		       49 c3		      eor	#$c3
   3259  0e15		       d1 5c		      cmp	(ind1),y	;test result
unittest.asm (3260): error: Unknown Mnemonic 'trap_ne'.
   3260  0e15					      trap_ne
   3261  0e17		       68		      pla		;load status
unittest.asm (3262): error: Unknown Mnemonic 'eor_flag'.
   3262  0e17					      eor_flag	lo~fnz	;mask bits not altered
   3263  0e18		       d9 1d 02 	      cmp	fLDx,y	;test flags
unittest.asm (3264): error: Unknown Mnemonic 'trap_ne'.
   3264  0e18					      trap_ne
   3265  0e1b		       88		      dey
   3266  0e1c		       10 eb		      bpl	tlday3
   3267  0e1e
   3268  0e1e		       a0 03		      ldy	#3	;testing store result
   3269  0e20		       a2 00		      ldx	#0
   3270  0e22		       b9 03 02    tstay1     lda	abst,y
   3271  0e25		       49 c3		      eor	#$c3
   3272  0e27		       d9 18 02 	      cmp	abs1,y
unittest.asm (3273): error: Unknown Mnemonic 'trap_ne'.
   3273  0e27					      trap_ne		;store to abs data
   3274  0e2a		       8a		      txa
   3275  0e2b		       99 03 02 	      sta	abst,y	;clear
   3276  0e2e		       88		      dey
   3277  0e2f		       10 f1		      bpl	tstay1
   3278  0e31
   3279  0e31		       a2 06		      ldx	#6
   3280  0e33		       a0 03		      ldy	#3
   3281  0e35				   tldax4
unittest.asm (3282): error: Unknown Mnemonic 'set_stat'.
   3282  0e35					      set_stat	0
   3283  0e35		       a1 5c		      lda	(ind1,x)
   3284  0e37		       08		      php		;test stores do not alter flags
   3285  0e38		       49 c3		      eor	#$c3
   3286  0e3a		       28		      plp
   3287  0e3b		       81 68		      sta	(indt,x)
   3288  0e3d		       08		      php		;flags after load/store sequence
   3289  0e3e		       49 c3		      eor	#$c3
   3290  0e40		       d9 18 02 	      cmp	abs1,y	;test result
unittest.asm (3291): error: Unknown Mnemonic 'trap_ne'.
   3291  0e40					      trap_ne
   3292  0e43		       68		      pla		;load status
unittest.asm (3293): error: Unknown Mnemonic 'eor_flag'.
   3293  0e43					      eor_flag	0
   3294  0e44		       d9 1d 02 	      cmp	fLDx,y	;test flags
unittest.asm (3295): error: Unknown Mnemonic 'trap_ne'.
   3295  0e44					      trap_ne
   3296  0e47		       ca		      dex
   3297  0e48		       ca		      dex
   3298  0e49		       88		      dey
   3299  0e4a		       10 e9		      bpl	tldax4
   3300  0e4c
   3301  0e4c		       a2 06		      ldx	#6
   3302  0e4e		       a0 03		      ldy	#3
   3303  0e50				   tldax5
unittest.asm (3304): error: Unknown Mnemonic 'set_stat'.
   3304  0e50					      set_stat	$ff
   3305  0e50		       a1 5c		      lda	(ind1,x)
   3306  0e52		       08		      php		;test stores do not alter flags
   3307  0e53		       49 c3		      eor	#$c3
   3308  0e55		       28		      plp
   3309  0e56		       81 68		      sta	(indt,x)
   3310  0e58		       08		      php		;flags after load/store sequence
   3311  0e59		       49 c3		      eor	#$c3
   3312  0e5b		       d9 18 02 	      cmp	abs1,y	;test result
unittest.asm (3313): error: Unknown Mnemonic 'trap_ne'.
   3313  0e5b					      trap_ne
   3314  0e5e		       68		      pla		;load status
unittest.asm (3315): error: Unknown Mnemonic 'eor_flag'.
   3315  0e5e					      eor_flag	lo~fnz	;mask bits not altered
   3316  0e5f		       d9 1d 02 	      cmp	fLDx,y	;test flags
unittest.asm (3317): error: Unknown Mnemonic 'trap_ne'.
   3317  0e5f					      trap_ne
   3318  0e62		       ca		      dex
   3319  0e63		       ca		      dex
   3320  0e64		       88		      dey
   3321  0e65		       10 e9		      bpl	tldax5
   3322  0e67
   3323  0e67		       a0 03		      ldy	#3	;testing store result
   3324  0e69		       a2 00		      ldx	#0
   3325  0e6b		       b9 03 02    tstay2     lda	abst,y
   3326  0e6e		       49 c3		      eor	#$c3
   3327  0e70		       d9 18 02 	      cmp	abs1,y
unittest.asm (3328): error: Unknown Mnemonic 'trap_ne'.
   3328  0e70					      trap_ne		;store to abs data
   3329  0e73		       8a		      txa
   3330  0e74		       99 03 02 	      sta	abst,y	;clear
   3331  0e77		       88		      dey
   3332  0e78		       10 f1		      bpl	tstay2
unittest.asm (3333): error: Unknown Mnemonic 'next_test'.
   3333  0e78					      next_test
   3334  0e7a
   3335  0e7a							; indexed wraparound test (only zp should wrap)
   3336  0e7a		       a2 fd		      ldx	#3+$fa
   3337  0e7c		       b5 51	   tldax6     lda	zp1-$fa&$ff,x	;wrap on indexed zp
   3338  0e7e		       9d 09 01 	      sta	abst-$fa,x	;no STX abs,x!
   3339  0e81		       ca		      dex
   3340  0e82		       e0 fa		      cpx	#$fa
   3341  0e84		       b0 f6		      bcs	tldax6
   3342  0e86		       a2 fd		      ldx	#3+$fa
   3343  0e88		       bd 1e 01    tldax7     lda	abs1-$fa,x	;no wrap on indexed abs
   3344  0e8b		       95 48		      sta	zpt-$fa&$ff,x
   3345  0e8d		       ca		      dex
   3346  0e8e		       e0 fa		      cpx	#$fa
   3347  0e90		       b0 f6		      bcs	tldax7
   3348  0e92
   3349  0e92		       a2 03		      ldx	#3	;testing wraparound result
   3350  0e94		       a0 00		      ldy	#0
   3351  0e96		       b5 42	   tstax1     lda	zpt,x
   3352  0e98		       d5 4b		      cmp	zp1,x
unittest.asm (3353): error: Unknown Mnemonic 'trap_ne'.
   3353  0e98					      trap_ne		;store to zp,x data
   3354  0e9a		       94 42		      sty	zpt,x	;clear
   3355  0e9c		       bd 03 02 	      lda	abst,x
   3356  0e9f		       dd 18 02 	      cmp	abs1,x
unittest.asm (3357): error: Unknown Mnemonic 'trap_ne'.
   3357  0e9f					      trap_ne		;store to abs,x data
   3358  0ea2		       8a		      txa
   3359  0ea3		       9d 03 02 	      sta	abst,x	;clear
   3360  0ea6		       ca		      dex
   3361  0ea7		       10 ed		      bpl	tstax1
   3362  0ea9
   3363  0ea9		       a0 fb		      ldy	#3+$f8
   3364  0eab		       a2 fe		      ldx	#6+$f8
   3365  0ead		       a1 64	   tlday4     lda	(ind1-$f8&$ff,x)	;wrap on indexed zp indirect
   3366  0eaf		       99 0b 01 	      sta	abst-$f8,y
   3367  0eb2		       ca		      dex
   3368  0eb3		       ca		      dex
   3369  0eb4		       88		      dey
   3370  0eb5		       c0 f8		      cpy	#$f8
   3371  0eb7		       b0 f4		      bcs	tlday4
   3372  0eb9		       a0 03		      ldy	#3	;testing wraparound result
   3373  0ebb		       a2 00		      ldx	#0
   3374  0ebd		       b9 03 02    tstay4     lda	abst,y
   3375  0ec0		       d9 18 02 	      cmp	abs1,y
unittest.asm (3376): error: Unknown Mnemonic 'trap_ne'.
   3376  0ec0					      trap_ne		;store to abs data
   3377  0ec3		       8a		      txa
   3378  0ec4		       99 03 02 	      sta	abst,y	;clear
   3379  0ec7		       88		      dey
   3380  0ec8		       10 f3		      bpl	tstay4
   3381  0eca
   3382  0eca		       a0 fb		      ldy	#3+$f8
   3383  0ecc		       b9 20 01    tlday5     lda	abs1-$f8,y	;no wrap on indexed abs
   3384  0ecf		       91 70		      sta	(inwt),y
   3385  0ed1		       88		      dey
   3386  0ed2		       c0 f8		      cpy	#$f8
   3387  0ed4		       b0 f6		      bcs	tlday5
   3388  0ed6		       a0 03		      ldy	#3	;testing wraparound result
   3389  0ed8		       a2 00		      ldx	#0
   3390  0eda		       b9 03 02    tstay5     lda	abst,y
   3391  0edd		       d9 18 02 	      cmp	abs1,y
unittest.asm (3392): error: Unknown Mnemonic 'trap_ne'.
   3392  0edd					      trap_ne		;store to abs data
   3393  0ee0		       8a		      txa
   3394  0ee1		       99 03 02 	      sta	abst,y	;clear
   3395  0ee4		       88		      dey
   3396  0ee5		       10 f3		      bpl	tstay5
   3397  0ee7
   3398  0ee7		       a0 fb		      ldy	#3+$f8
   3399  0ee9		       a2 fe		      ldx	#6+$f8
   3400  0eeb		       b1 66	   tlday6     lda	(inw1),y	;no wrap on zp indirect indexed
   3401  0eed		       81 70		      sta	(indt-$f8&$ff,x)
   3402  0eef		       ca		      dex
   3403  0ef0		       ca		      dex
   3404  0ef1		       88		      dey
   3405  0ef2		       c0 f8		      cpy	#$f8
   3406  0ef4		       b0 f5		      bcs	tlday6
   3407  0ef6		       a0 03		      ldy	#3	;testing wraparound result
   3408  0ef8		       a2 00		      ldx	#0
   3409  0efa		       b9 03 02    tstay6     lda	abst,y
   3410  0efd		       d9 18 02 	      cmp	abs1,y
unittest.asm (3411): error: Unknown Mnemonic 'trap_ne'.
   3411  0efd					      trap_ne		;store to abs data
   3412  0f00		       8a		      txa
   3413  0f01		       99 03 02 	      sta	abst,y	;clear
   3414  0f04		       88		      dey
   3415  0f05		       10 f3		      bpl	tstay6
unittest.asm (3416): error: Unknown Mnemonic 'next_test'.
   3416  0f05					      next_test
   3417  0f07
   3418  0f07							; LDA / STA - zp / abs / #
unittest.asm (3419): error: Unknown Mnemonic 'set_stat'.
   3419  0f07					      set_stat	0
   3420  0f07		       a5 4b		      lda	zp1
   3421  0f09		       08		      php		;test stores do not alter flags
   3422  0f0a		       49 c3		      eor	#$c3
   3423  0f0c		       28		      plp
   3424  0f0d		       8d 03 02 	      sta	abst
   3425  0f10		       08		      php		;flags after load/store sequence
   3426  0f11		       49 c3		      eor	#$c3
   3427  0f13		       c9 c3		      cmp	#$c3	;test result
unittest.asm (3428): error: Unknown Mnemonic 'trap_ne'.
   3428  0f13					      trap_ne
   3429  0f15		       68		      pla		;load status
unittest.asm (3430): error: Unknown Mnemonic 'eor_flag'.
   3430  0f15					      eor_flag	0
   3431  0f16		       cd 1d 02 	      cmp	fLDx	;test flags
unittest.asm (3432): error: Unknown Mnemonic 'trap_ne'.
   3432  0f16					      trap_ne
unittest.asm (3433): error: Unknown Mnemonic 'set_stat'.
   3433  0f16					      set_stat	0
   3434  0f19		       a5 4c		      lda	zp1+1
   3435  0f1b		       08		      php		;test stores do not alter flags
   3436  0f1c		       49 c3		      eor	#$c3
   3437  0f1e		       28		      plp
   3438  0f1f		       8d 04 02 	      sta	abst+1
   3439  0f22		       08		      php		;flags after load/store sequence
   3440  0f23		       49 c3		      eor	#$c3
   3441  0f25		       c9 82		      cmp	#$82	;test result
unittest.asm (3442): error: Unknown Mnemonic 'trap_ne'.
   3442  0f25					      trap_ne
   3443  0f27		       68		      pla		;load status
unittest.asm (3444): error: Unknown Mnemonic 'eor_flag'.
   3444  0f27					      eor_flag	0
   3445  0f28		       cd 1e 02 	      cmp	fLDx+1	;test flags
unittest.asm (3446): error: Unknown Mnemonic 'trap_ne'.
   3446  0f28					      trap_ne
unittest.asm (3447): error: Unknown Mnemonic 'set_stat'.
   3447  0f28					      set_stat	0
   3448  0f2b		       a5 4d		      lda	zp1+2
   3449  0f2d		       08		      php		;test stores do not alter flags
   3450  0f2e		       49 c3		      eor	#$c3
   3451  0f30		       28		      plp
   3452  0f31		       8d 05 02 	      sta	abst+2
   3453  0f34		       08		      php		;flags after load/store sequence
   3454  0f35		       49 c3		      eor	#$c3
   3455  0f37		       c9 41		      cmp	#$41	;test result
unittest.asm (3456): error: Unknown Mnemonic 'trap_ne'.
   3456  0f37					      trap_ne
   3457  0f39		       68		      pla		;load status
unittest.asm (3458): error: Unknown Mnemonic 'eor_flag'.
   3458  0f39					      eor_flag	0
   3459  0f3a		       cd 1f 02 	      cmp	fLDx+2	;test flags
unittest.asm (3460): error: Unknown Mnemonic 'trap_ne'.
   3460  0f3a					      trap_ne
unittest.asm (3461): error: Unknown Mnemonic 'set_stat'.
   3461  0f3a					      set_stat	0
   3462  0f3d		       a5 4e		      lda	zp1+3
   3463  0f3f		       08		      php		;test stores do not alter flags
   3464  0f40		       49 c3		      eor	#$c3
   3465  0f42		       28		      plp
   3466  0f43		       8d 06 02 	      sta	abst+3
   3467  0f46		       08		      php		;flags after load/store sequence
   3468  0f47		       49 c3		      eor	#$c3
   3469  0f49		       c9 00		      cmp	#0	;test result
unittest.asm (3470): error: Unknown Mnemonic 'trap_ne'.
   3470  0f49					      trap_ne
   3471  0f4b		       68		      pla		;load status
unittest.asm (3472): error: Unknown Mnemonic 'eor_flag'.
   3472  0f4b					      eor_flag	0
   3473  0f4c		       cd 20 02 	      cmp	fLDx+3	;test flags
unittest.asm (3474): error: Unknown Mnemonic 'trap_ne'.
   3474  0f4c					      trap_ne
unittest.asm (3475): error: Unknown Mnemonic 'set_stat'.
   3475  0f4c					      set_stat	$ff
   3476  0f4f		       a5 4b		      lda	zp1
   3477  0f51		       08		      php		;test stores do not alter flags
   3478  0f52		       49 c3		      eor	#$c3
   3479  0f54		       28		      plp
   3480  0f55		       8d 03 02 	      sta	abst
   3481  0f58		       08		      php		;flags after load/store sequence
   3482  0f59		       49 c3		      eor	#$c3
   3483  0f5b		       c9 c3		      cmp	#$c3	;test result
unittest.asm (3484): error: Unknown Mnemonic 'trap_ne'.
   3484  0f5b					      trap_ne
   3485  0f5d		       68		      pla		;load status
unittest.asm (3486): error: Unknown Mnemonic 'eor_flag'.
   3486  0f5d					      eor_flag	lo~fnz	;mask bits not altered
   3487  0f5e		       cd 1d 02 	      cmp	fLDx	;test flags
unittest.asm (3488): error: Unknown Mnemonic 'trap_ne'.
   3488  0f5e					      trap_ne
unittest.asm (3489): error: Unknown Mnemonic 'set_stat'.
   3489  0f5e					      set_stat	$ff
   3490  0f61		       a5 4c		      lda	zp1+1
   3491  0f63		       08		      php		;test stores do not alter flags
   3492  0f64		       49 c3		      eor	#$c3
   3493  0f66		       28		      plp
   3494  0f67		       8d 04 02 	      sta	abst+1
   3495  0f6a		       08		      php		;flags after load/store sequence
   3496  0f6b		       49 c3		      eor	#$c3
   3497  0f6d		       c9 82		      cmp	#$82	;test result
unittest.asm (3498): error: Unknown Mnemonic 'trap_ne'.
   3498  0f6d					      trap_ne
   3499  0f6f		       68		      pla		;load status
unittest.asm (3500): error: Unknown Mnemonic 'eor_flag'.
   3500  0f6f					      eor_flag	lo~fnz	;mask bits not altered
   3501  0f70		       cd 1e 02 	      cmp	fLDx+1	;test flags
unittest.asm (3502): error: Unknown Mnemonic 'trap_ne'.
   3502  0f70					      trap_ne
unittest.asm (3503): error: Unknown Mnemonic 'set_stat'.
   3503  0f70					      set_stat	$ff
   3504  0f73		       a5 4d		      lda	zp1+2
   3505  0f75		       08		      php		;test stores do not alter flags
   3506  0f76		       49 c3		      eor	#$c3
   3507  0f78		       28		      plp
   3508  0f79		       8d 05 02 	      sta	abst+2
   3509  0f7c		       08		      php		;flags after load/store sequence
   3510  0f7d		       49 c3		      eor	#$c3
   3511  0f7f		       c9 41		      cmp	#$41	;test result
unittest.asm (3512): error: Unknown Mnemonic 'trap_ne'.
   3512  0f7f					      trap_ne
   3513  0f81		       68		      pla		;load status
unittest.asm (3514): error: Unknown Mnemonic 'eor_flag'.
   3514  0f81					      eor_flag	lo~fnz	;mask bits not altered
   3515  0f82		       cd 1f 02 	      cmp	fLDx+2	;test flags
unittest.asm (3516): error: Unknown Mnemonic 'trap_ne'.
   3516  0f82					      trap_ne
unittest.asm (3517): error: Unknown Mnemonic 'set_stat'.
   3517  0f82					      set_stat	$ff
   3518  0f85		       a5 4e		      lda	zp1+3
   3519  0f87		       08		      php		;test stores do not alter flags
   3520  0f88		       49 c3		      eor	#$c3
   3521  0f8a		       28		      plp
   3522  0f8b		       8d 06 02 	      sta	abst+3
   3523  0f8e		       08		      php		;flags after load/store sequence
   3524  0f8f		       49 c3		      eor	#$c3
   3525  0f91		       c9 00		      cmp	#0	;test result
unittest.asm (3526): error: Unknown Mnemonic 'trap_ne'.
   3526  0f91					      trap_ne
   3527  0f93		       68		      pla		;load status
unittest.asm (3528): error: Unknown Mnemonic 'eor_flag'.
   3528  0f93					      eor_flag	lo~fnz	;mask bits not altered
   3529  0f94		       cd 20 02 	      cmp	fLDx+3	;test flags
unittest.asm (3530): error: Unknown Mnemonic 'trap_ne'.
   3530  0f94					      trap_ne
unittest.asm (3531): error: Unknown Mnemonic 'set_stat'.
   3531  0f94					      set_stat	0
   3532  0f97		       ad 18 02 	      lda	abs1
   3533  0f9a		       08		      php		;test stores do not alter flags
   3534  0f9b		       49 c3		      eor	#$c3
   3535  0f9d		       28		      plp
   3536  0f9e		       85 42		      sta	zpt
   3537  0fa0		       08		      php		;flags after load/store sequence
   3538  0fa1		       49 c3		      eor	#$c3
   3539  0fa3		       c5 4b		      cmp	zp1	;test result
unittest.asm (3540): error: Unknown Mnemonic 'trap_ne'.
   3540  0fa3					      trap_ne
   3541  0fa5		       68		      pla		;load status
unittest.asm (3542): error: Unknown Mnemonic 'eor_flag'.
   3542  0fa5					      eor_flag	0
   3543  0fa6		       cd 1d 02 	      cmp	fLDx	;test flags
unittest.asm (3544): error: Unknown Mnemonic 'trap_ne'.
   3544  0fa6					      trap_ne
unittest.asm (3545): error: Unknown Mnemonic 'set_stat'.
   3545  0fa6					      set_stat	0
   3546  0fa9		       ad 19 02 	      lda	abs1+1
   3547  0fac		       08		      php		;test stores do not alter flags
   3548  0fad		       49 c3		      eor	#$c3
   3549  0faf		       28		      plp
   3550  0fb0		       85 43		      sta	zpt+1
   3551  0fb2		       08		      php		;flags after load/store sequence
   3552  0fb3		       49 c3		      eor	#$c3
   3553  0fb5		       c5 4c		      cmp	zp1+1	;test result
unittest.asm (3554): error: Unknown Mnemonic 'trap_ne'.
   3554  0fb5					      trap_ne
   3555  0fb7		       68		      pla		;load status
unittest.asm (3556): error: Unknown Mnemonic 'eor_flag'.
   3556  0fb7					      eor_flag	0
   3557  0fb8		       cd 1e 02 	      cmp	fLDx+1	;test flags
unittest.asm (3558): error: Unknown Mnemonic 'trap_ne'.
   3558  0fb8					      trap_ne
unittest.asm (3559): error: Unknown Mnemonic 'set_stat'.
   3559  0fb8					      set_stat	0
   3560  0fbb		       ad 1a 02 	      lda	abs1+2
   3561  0fbe		       08		      php		;test stores do not alter flags
   3562  0fbf		       49 c3		      eor	#$c3
   3563  0fc1		       28		      plp
   3564  0fc2		       85 44		      sta	zpt+2
   3565  0fc4		       08		      php		;flags after load/store sequence
   3566  0fc5		       49 c3		      eor	#$c3
   3567  0fc7		       c5 4d		      cmp	zp1+2	;test result
unittest.asm (3568): error: Unknown Mnemonic 'trap_ne'.
   3568  0fc7					      trap_ne
   3569  0fc9		       68		      pla		;load status
unittest.asm (3570): error: Unknown Mnemonic 'eor_flag'.
   3570  0fc9					      eor_flag	0
   3571  0fca		       cd 1f 02 	      cmp	fLDx+2	;test flags
unittest.asm (3572): error: Unknown Mnemonic 'trap_ne'.
   3572  0fca					      trap_ne
unittest.asm (3573): error: Unknown Mnemonic 'set_stat'.
   3573  0fca					      set_stat	0
   3574  0fcd		       ad 1b 02 	      lda	abs1+3
   3575  0fd0		       08		      php		;test stores do not alter flags
   3576  0fd1		       49 c3		      eor	#$c3
   3577  0fd3		       28		      plp
   3578  0fd4		       85 45		      sta	zpt+3
   3579  0fd6		       08		      php		;flags after load/store sequence
   3580  0fd7		       49 c3		      eor	#$c3
   3581  0fd9		       c5 4e		      cmp	zp1+3	;test result
unittest.asm (3582): error: Unknown Mnemonic 'trap_ne'.
   3582  0fd9					      trap_ne
   3583  0fdb		       68		      pla		;load status
unittest.asm (3584): error: Unknown Mnemonic 'eor_flag'.
   3584  0fdb					      eor_flag	0
   3585  0fdc		       cd 20 02 	      cmp	fLDx+3	;test flags
unittest.asm (3586): error: Unknown Mnemonic 'trap_ne'.
   3586  0fdc					      trap_ne
unittest.asm (3587): error: Unknown Mnemonic 'set_stat'.
   3587  0fdc					      set_stat	$ff
   3588  0fdf		       ad 18 02 	      lda	abs1
   3589  0fe2		       08		      php		;test stores do not alter flags
   3590  0fe3		       49 c3		      eor	#$c3
   3591  0fe5		       28		      plp
   3592  0fe6		       85 42		      sta	zpt
   3593  0fe8		       08		      php		;flags after load/store sequence
   3594  0fe9		       49 c3		      eor	#$c3
   3595  0feb		       c5 4b		      cmp	zp1	;test result
unittest.asm (3596): error: Unknown Mnemonic 'trap_ne'.
   3596  0feb					      trap_ne
   3597  0fed		       68		      pla		;load status
unittest.asm (3598): error: Unknown Mnemonic 'eor_flag'.
   3598  0fed					      eor_flag	lo~fnz	;mask bits not altered
   3599  0fee		       cd 1d 02 	      cmp	fLDx	;test flags
unittest.asm (3600): error: Unknown Mnemonic 'trap_ne'.
   3600  0fee					      trap_ne
unittest.asm (3601): error: Unknown Mnemonic 'set_stat'.
   3601  0fee					      set_stat	$ff
   3602  0ff1		       ad 19 02 	      lda	abs1+1
   3603  0ff4		       08		      php		;test stores do not alter flags
   3604  0ff5		       49 c3		      eor	#$c3
   3605  0ff7		       28		      plp
   3606  0ff8		       85 43		      sta	zpt+1
   3607  0ffa		       08		      php		;flags after load/store sequence
   3608  0ffb		       49 c3		      eor	#$c3
   3609  0ffd		       c5 4c		      cmp	zp1+1	;test result
unittest.asm (3610): error: Unknown Mnemonic 'trap_ne'.
   3610  0ffd					      trap_ne
   3611  0fff		       68		      pla		;load status
unittest.asm (3612): error: Unknown Mnemonic 'eor_flag'.
   3612  0fff					      eor_flag	lo~fnz	;mask bits not altered
   3613  1000		       cd 1e 02 	      cmp	fLDx+1	;test flags
unittest.asm (3614): error: Unknown Mnemonic 'trap_ne'.
   3614  1000					      trap_ne
unittest.asm (3615): error: Unknown Mnemonic 'set_stat'.
   3615  1000					      set_stat	$ff
   3616  1003		       ad 1a 02 	      lda	abs1+2
   3617  1006		       08		      php		;test stores do not alter flags
   3618  1007		       49 c3		      eor	#$c3
   3619  1009		       28		      plp
   3620  100a		       85 44		      sta	zpt+2
   3621  100c		       08		      php		;flags after load/store sequence
   3622  100d		       49 c3		      eor	#$c3
   3623  100f		       c5 4d		      cmp	zp1+2	;test result
unittest.asm (3624): error: Unknown Mnemonic 'trap_ne'.
   3624  100f					      trap_ne
   3625  1011		       68		      pla		;load status
unittest.asm (3626): error: Unknown Mnemonic 'eor_flag'.
   3626  1011					      eor_flag	lo~fnz	;mask bits not altered
   3627  1012		       cd 1f 02 	      cmp	fLDx+2	;test flags
unittest.asm (3628): error: Unknown Mnemonic 'trap_ne'.
   3628  1012					      trap_ne
unittest.asm (3629): error: Unknown Mnemonic 'set_stat'.
   3629  1012					      set_stat	$ff
   3630  1015		       ad 1b 02 	      lda	abs1+3
   3631  1018		       08		      php		;test stores do not alter flags
   3632  1019		       49 c3		      eor	#$c3
   3633  101b		       28		      plp
   3634  101c		       85 45		      sta	zpt+3
   3635  101e		       08		      php		;flags after load/store sequence
   3636  101f		       49 c3		      eor	#$c3
   3637  1021		       c5 4e		      cmp	zp1+3	;test result
unittest.asm (3638): error: Unknown Mnemonic 'trap_ne'.
   3638  1021					      trap_ne
   3639  1023		       68		      pla		;load status
unittest.asm (3640): error: Unknown Mnemonic 'eor_flag'.
   3640  1023					      eor_flag	lo~fnz	;mask bits not altered
   3641  1024		       cd 20 02 	      cmp	fLDx+3	;test flags
unittest.asm (3642): error: Unknown Mnemonic 'trap_ne'.
   3642  1024					      trap_ne
unittest.asm (3643): error: Unknown Mnemonic 'set_stat'.
   3643  1024					      set_stat	0
   3644  1027		       a9 c3		      lda	#$c3
   3645  1029		       08		      php
   3646  102a		       cd 18 02 	      cmp	abs1	;test result
unittest.asm (3647): error: Unknown Mnemonic 'trap_ne'.
   3647  102a					      trap_ne
   3648  102d		       68		      pla		;load status
unittest.asm (3649): error: Unknown Mnemonic 'eor_flag'.
   3649  102d					      eor_flag	0
   3650  102e		       cd 1d 02 	      cmp	fLDx	;test flags
unittest.asm (3651): error: Unknown Mnemonic 'trap_ne'.
   3651  102e					      trap_ne
unittest.asm (3652): error: Unknown Mnemonic 'set_stat'.
   3652  102e					      set_stat	0
   3653  1031		       a9 82		      lda	#$82
   3654  1033		       08		      php
   3655  1034		       cd 19 02 	      cmp	abs1+1	;test result
unittest.asm (3656): error: Unknown Mnemonic 'trap_ne'.
   3656  1034					      trap_ne
   3657  1037		       68		      pla		;load status
unittest.asm (3658): error: Unknown Mnemonic 'eor_flag'.
   3658  1037					      eor_flag	0
   3659  1038		       cd 1e 02 	      cmp	fLDx+1	;test flags
unittest.asm (3660): error: Unknown Mnemonic 'trap_ne'.
   3660  1038					      trap_ne
unittest.asm (3661): error: Unknown Mnemonic 'set_stat'.
   3661  1038					      set_stat	0
   3662  103b		       a9 41		      lda	#$41
   3663  103d		       08		      php
   3664  103e		       cd 1a 02 	      cmp	abs1+2	;test result
unittest.asm (3665): error: Unknown Mnemonic 'trap_ne'.
   3665  103e					      trap_ne
   3666  1041		       68		      pla		;load status
unittest.asm (3667): error: Unknown Mnemonic 'eor_flag'.
   3667  1041					      eor_flag	0
   3668  1042		       cd 1f 02 	      cmp	fLDx+2	;test flags
unittest.asm (3669): error: Unknown Mnemonic 'trap_ne'.
   3669  1042					      trap_ne
unittest.asm (3670): error: Unknown Mnemonic 'set_stat'.
   3670  1042					      set_stat	0
   3671  1045		       a9 00		      lda	#0
   3672  1047		       08		      php
   3673  1048		       cd 1b 02 	      cmp	abs1+3	;test result
unittest.asm (3674): error: Unknown Mnemonic 'trap_ne'.
   3674  1048					      trap_ne
   3675  104b		       68		      pla		;load status
unittest.asm (3676): error: Unknown Mnemonic 'eor_flag'.
   3676  104b					      eor_flag	0
   3677  104c		       cd 20 02 	      cmp	fLDx+3	;test flags
unittest.asm (3678): error: Unknown Mnemonic 'trap_ne'.
   3678  104c					      trap_ne
   3679  104f
unittest.asm (3680): error: Unknown Mnemonic 'set_stat'.
   3680  104f					      set_stat	$ff
   3681  104f		       a9 c3		      lda	#$c3
   3682  1051		       08		      php
   3683  1052		       cd 18 02 	      cmp	abs1	;test result
unittest.asm (3684): error: Unknown Mnemonic 'trap_ne'.
   3684  1052					      trap_ne
   3685  1055		       68		      pla		;load status
unittest.asm (3686): error: Unknown Mnemonic 'eor_flag'.
   3686  1055					      eor_flag	lo~fnz	;mask bits not altered
   3687  1056		       cd 1d 02 	      cmp	fLDx	;test flags
unittest.asm (3688): error: Unknown Mnemonic 'trap_ne'.
   3688  1056					      trap_ne
unittest.asm (3689): error: Unknown Mnemonic 'set_stat'.
   3689  1056					      set_stat	$ff
   3690  1059		       a9 82		      lda	#$82
   3691  105b		       08		      php
   3692  105c		       cd 19 02 	      cmp	abs1+1	;test result
unittest.asm (3693): error: Unknown Mnemonic 'trap_ne'.
   3693  105c					      trap_ne
   3694  105f		       68		      pla		;load status
unittest.asm (3695): error: Unknown Mnemonic 'eor_flag'.
   3695  105f					      eor_flag	lo~fnz	;mask bits not altered
   3696  1060		       cd 1e 02 	      cmp	fLDx+1	;test flags
unittest.asm (3697): error: Unknown Mnemonic 'trap_ne'.
   3697  1060					      trap_ne
unittest.asm (3698): error: Unknown Mnemonic 'set_stat'.
   3698  1060					      set_stat	$ff
   3699  1063		       a9 41		      lda	#$41
   3700  1065		       08		      php
   3701  1066		       cd 1a 02 	      cmp	abs1+2	;test result
unittest.asm (3702): error: Unknown Mnemonic 'trap_ne'.
   3702  1066					      trap_ne
   3703  1069		       68		      pla		;load status
unittest.asm (3704): error: Unknown Mnemonic 'eor_flag'.
   3704  1069					      eor_flag	lo~fnz	;mask bits not altered
   3705  106a		       cd 1f 02 	      cmp	fLDx+2	;test flags
unittest.asm (3706): error: Unknown Mnemonic 'trap_ne'.
   3706  106a					      trap_ne
unittest.asm (3707): error: Unknown Mnemonic 'set_stat'.
   3707  106a					      set_stat	$ff
   3708  106d		       a9 00		      lda	#0
   3709  106f		       08		      php
   3710  1070		       cd 1b 02 	      cmp	abs1+3	;test result
unittest.asm (3711): error: Unknown Mnemonic 'trap_ne'.
   3711  1070					      trap_ne
   3712  1073		       68		      pla		;load status
unittest.asm (3713): error: Unknown Mnemonic 'eor_flag'.
   3713  1073					      eor_flag	lo~fnz	;mask bits not altered
   3714  1074		       cd 20 02 	      cmp	fLDx+3	;test flags
unittest.asm (3715): error: Unknown Mnemonic 'trap_ne'.
   3715  1074					      trap_ne
   3716  1077
   3717  1077		       a2 00		      ldx	#0
   3718  1079		       a5 42		      lda	zpt
   3719  107b		       49 c3		      eor	#$c3
   3720  107d		       c5 4b		      cmp	zp1
unittest.asm (3721): error: Unknown Mnemonic 'trap_ne'.
   3721  107d					      trap_ne		;store to zp data
   3722  107f		       86 42		      stx	zpt	;clear
   3723  1081		       ad 03 02 	      lda	abst
   3724  1084		       49 c3		      eor	#$c3
   3725  1086		       cd 18 02 	      cmp	abs1
unittest.asm (3726): error: Unknown Mnemonic 'trap_ne'.
   3726  1086					      trap_ne		;store to abs data
   3727  1089		       8e 03 02 	      stx	abst	;clear
   3728  108c		       a5 43		      lda	zpt+1
   3729  108e		       49 c3		      eor	#$c3
   3730  1090		       c5 4c		      cmp	zp1+1
unittest.asm (3731): error: Unknown Mnemonic 'trap_ne'.
   3731  1090					      trap_ne		;store to zp data
   3732  1092		       86 43		      stx	zpt+1	;clear
   3733  1094		       ad 04 02 	      lda	abst+1
   3734  1097		       49 c3		      eor	#$c3
   3735  1099		       cd 19 02 	      cmp	abs1+1
unittest.asm (3736): error: Unknown Mnemonic 'trap_ne'.
   3736  1099					      trap_ne		;store to abs data
   3737  109c		       8e 04 02 	      stx	abst+1	;clear
   3738  109f		       a5 44		      lda	zpt+2
   3739  10a1		       49 c3		      eor	#$c3
   3740  10a3		       c5 4d		      cmp	zp1+2
unittest.asm (3741): error: Unknown Mnemonic 'trap_ne'.
   3741  10a3					      trap_ne		;store to zp data
   3742  10a5		       86 44		      stx	zpt+2	;clear
   3743  10a7		       ad 05 02 	      lda	abst+2
   3744  10aa		       49 c3		      eor	#$c3
   3745  10ac		       cd 1a 02 	      cmp	abs1+2
unittest.asm (3746): error: Unknown Mnemonic 'trap_ne'.
   3746  10ac					      trap_ne		;store to abs data
   3747  10af		       8e 05 02 	      stx	abst+2	;clear
   3748  10b2		       a5 45		      lda	zpt+3
   3749  10b4		       49 c3		      eor	#$c3
   3750  10b6		       c5 4e		      cmp	zp1+3
unittest.asm (3751): error: Unknown Mnemonic 'trap_ne'.
   3751  10b6					      trap_ne		;store to zp data
   3752  10b8		       86 45		      stx	zpt+3	;clear
   3753  10ba		       ad 06 02 	      lda	abst+3
   3754  10bd		       49 c3		      eor	#$c3
   3755  10bf		       cd 1b 02 	      cmp	abs1+3
unittest.asm (3756): error: Unknown Mnemonic 'trap_ne'.
   3756  10bf					      trap_ne		;store to abs data
   3757  10c2		       8e 06 02 	      stx	abst+3	;clear
unittest.asm (3758): error: Unknown Mnemonic 'next_test'.
   3758  10c2					      next_test
   3759  10c5
   3760  10c5							; testing bit test & compares BIT CPX CPY CMP all addressing modes
   3761  10c5							; BIT - zp / abs
unittest.asm (3762): error: Unknown Mnemonic 'set_a'.
   3762  10c5					      set_a	$ff,0
   3763  10c5		       24 4e		      bit	zp1+3	;00 - should set Z / clear  NV
unittest.asm (3764): error: Unknown Mnemonic 'tst_a'.
   3764  10c5					      tst_a	$ff,fz
unittest.asm (3765): error: Unknown Mnemonic 'set_a'.
   3765  10c5					      set_a	1,0
   3766  10c7		       24 4d		      bit	zp1+2	;41 - should set V (M6) / clear NZ
unittest.asm (3767): error: Unknown Mnemonic 'tst_a'.
   3767  10c7					      tst_a	1,fv
unittest.asm (3768): error: Unknown Mnemonic 'set_a'.
   3768  10c7					      set_a	1,0
   3769  10c9		       24 4c		      bit	zp1+1	;82 - should set N (M7) & Z / clear V
unittest.asm (3770): error: Unknown Mnemonic 'tst_a'.
   3770  10c9					      tst_a	1,fnz
unittest.asm (3771): error: Unknown Mnemonic 'set_a'.
   3771  10c9					      set_a	1,0
   3772  10cb		       24 4b		      bit	zp1	;c3 - should set N (M7) & V (M6) / clear Z
unittest.asm (3773): error: Unknown Mnemonic 'tst_a'.
   3773  10cb					      tst_a	1,fnv
   3774  10cd
unittest.asm (3775): error: Unknown Mnemonic 'set_a'.
   3775  10cd					      set_a	$ff,$ff
   3776  10cd		       24 4e		      bit	zp1+3	;00 - should set Z / clear  NV
unittest.asm (3777): error: Unknown Mnemonic 'tst_a'.
   3777  10cd					      tst_a	$ff,~fnv
unittest.asm (3778): error: Unknown Mnemonic 'set_a'.
   3778  10cd					      set_a	1,$ff
   3779  10cf		       24 4d		      bit	zp1+2	;41 - should set V (M6) / clear NZ
unittest.asm (3780): error: Unknown Mnemonic 'tst_a'.
   3780  10cf					      tst_a	1,~fnz
unittest.asm (3781): error: Unknown Mnemonic 'set_a'.
   3781  10cf					      set_a	1,$ff
   3782  10d1		       24 4c		      bit	zp1+1	;82 - should set N (M7) & Z / clear V
unittest.asm (3783): error: Unknown Mnemonic 'tst_a'.
   3783  10d1					      tst_a	1,~fv
unittest.asm (3784): error: Unknown Mnemonic 'set_a'.
   3784  10d1					      set_a	1,$ff
   3785  10d3		       24 4b		      bit	zp1	;c3 - should set N (M7) & V (M6) / clear Z
unittest.asm (3786): error: Unknown Mnemonic 'tst_a'.
   3786  10d3					      tst_a	1,~fz
   3787  10d5
unittest.asm (3788): error: Unknown Mnemonic 'set_a'.
   3788  10d5					      set_a	$ff,0
   3789  10d5		       2c 1b 02 	      bit	abs1+3	;00 - should set Z / clear  NV
unittest.asm (3790): error: Unknown Mnemonic 'tst_a'.
   3790  10d5					      tst_a	$ff,fz
unittest.asm (3791): error: Unknown Mnemonic 'set_a'.
   3791  10d5					      set_a	1,0
   3792  10d8		       2c 1a 02 	      bit	abs1+2	;41 - should set V (M6) / clear NZ
unittest.asm (3793): error: Unknown Mnemonic 'tst_a'.
   3793  10d8					      tst_a	1,fv
unittest.asm (3794): error: Unknown Mnemonic 'set_a'.
   3794  10d8					      set_a	1,0
   3795  10db		       2c 19 02 	      bit	abs1+1	;82 - should set N (M7) & Z / clear V
unittest.asm (3796): error: Unknown Mnemonic 'tst_a'.
   3796  10db					      tst_a	1,fnz
unittest.asm (3797): error: Unknown Mnemonic 'set_a'.
   3797  10db					      set_a	1,0
   3798  10de		       2c 18 02 	      bit	abs1	;c3 - should set N (M7) & V (M6) / clear Z
unittest.asm (3799): error: Unknown Mnemonic 'tst_a'.
   3799  10de					      tst_a	1,fnv
   3800  10e1
unittest.asm (3801): error: Unknown Mnemonic 'set_a'.
   3801  10e1					      set_a	$ff,$ff
   3802  10e1		       2c 1b 02 	      bit	abs1+3	;00 - should set Z / clear  NV
unittest.asm (3803): error: Unknown Mnemonic 'tst_a'.
   3803  10e1					      tst_a	$ff,~fnv
unittest.asm (3804): error: Unknown Mnemonic 'set_a'.
   3804  10e1					      set_a	1,$ff
   3805  10e4		       2c 1a 02 	      bit	abs1+2	;41 - should set V (M6) / clear NZ
unittest.asm (3806): error: Unknown Mnemonic 'tst_a'.
   3806  10e4					      tst_a	1,~fnz
unittest.asm (3807): error: Unknown Mnemonic 'set_a'.
   3807  10e4					      set_a	1,$ff
   3808  10e7		       2c 19 02 	      bit	abs1+1	;82 - should set N (M7) & Z / clear V
unittest.asm (3809): error: Unknown Mnemonic 'tst_a'.
   3809  10e7					      tst_a	1,~fv
unittest.asm (3810): error: Unknown Mnemonic 'set_a'.
   3810  10e7					      set_a	1,$ff
   3811  10ea		       2c 18 02 	      bit	abs1	;c3 - should set N (M7) & V (M6) / clear Z
unittest.asm (3812): error: Unknown Mnemonic 'tst_a'.
   3812  10ea					      tst_a	1,~fz
unittest.asm (3813): error: Unknown Mnemonic 'next_test'.
   3813  10ea					      next_test
   3814  10ed
   3815  10ed							; CPX - zp / abs / #
unittest.asm (3816): error: Unknown Mnemonic 'set_x'.
   3816  10ed					      set_x	$80,0
   3817  10ed		       e4 4f		      cpx	zp7f
unittest.asm (3818): error: Unknown Mnemonic 'tst_stat'.
   3818  10ed					      tst_stat	fc
   3819  10ef		       ca		      dex
   3820  10f0		       e4 4f		      cpx	zp7f
unittest.asm (3821): error: Unknown Mnemonic 'tst_stat'.
   3821  10f0					      tst_stat	fzc
   3822  10f2		       ca		      dex
   3823  10f3		       e4 4f		      cpx	zp7f
unittest.asm (3824): error: Unknown Mnemonic 'tst_x'.
   3824  10f3					      tst_x	$7e,fn
unittest.asm (3825): error: Unknown Mnemonic 'set_x'.
   3825  10f3					      set_x	$80,$ff
   3826  10f5		       e4 4f		      cpx	zp7f
unittest.asm (3827): error: Unknown Mnemonic 'tst_stat'.
   3827  10f5					      tst_stat	~fnz
   3828  10f7		       ca		      dex
   3829  10f8		       e4 4f		      cpx	zp7f
unittest.asm (3830): error: Unknown Mnemonic 'tst_stat'.
   3830  10f8					      tst_stat	~fn
   3831  10fa		       ca		      dex
   3832  10fb		       e4 4f		      cpx	zp7f
unittest.asm (3833): error: Unknown Mnemonic 'tst_x'.
   3833  10fb					      tst_x	$7e,~fzc
   3834  10fd
unittest.asm (3835): error: Unknown Mnemonic 'set_x'.
   3835  10fd					      set_x	$80,0
   3836  10fd		       ec 1c 02 	      cpx	abs7f
unittest.asm (3837): error: Unknown Mnemonic 'tst_stat'.
   3837  10fd					      tst_stat	fc
   3838  1100		       ca		      dex
   3839  1101		       ec 1c 02 	      cpx	abs7f
unittest.asm (3840): error: Unknown Mnemonic 'tst_stat'.
   3840  1101					      tst_stat	fzc
   3841  1104		       ca		      dex
   3842  1105		       ec 1c 02 	      cpx	abs7f
unittest.asm (3843): error: Unknown Mnemonic 'tst_x'.
   3843  1105					      tst_x	$7e,fn
unittest.asm (3844): error: Unknown Mnemonic 'set_x'.
   3844  1105					      set_x	$80,$ff
   3845  1108		       ec 1c 02 	      cpx	abs7f
unittest.asm (3846): error: Unknown Mnemonic 'tst_stat'.
   3846  1108					      tst_stat	~fnz
   3847  110b		       ca		      dex
   3848  110c		       ec 1c 02 	      cpx	abs7f
unittest.asm (3849): error: Unknown Mnemonic 'tst_stat'.
   3849  110c					      tst_stat	~fn
   3850  110f		       ca		      dex
   3851  1110		       ec 1c 02 	      cpx	abs7f
unittest.asm (3852): error: Unknown Mnemonic 'tst_x'.
   3852  1110					      tst_x	$7e,~fzc
   3853  1113
unittest.asm (3854): error: Unknown Mnemonic 'set_x'.
   3854  1113					      set_x	$80,0
   3855  1113		       e0 7f		      cpx	#$7f
unittest.asm (3856): error: Unknown Mnemonic 'tst_stat'.
   3856  1113					      tst_stat	fc
   3857  1115		       ca		      dex
   3858  1116		       e0 7f		      cpx	#$7f
unittest.asm (3859): error: Unknown Mnemonic 'tst_stat'.
   3859  1116					      tst_stat	fzc
   3860  1118		       ca		      dex
   3861  1119		       e0 7f		      cpx	#$7f
unittest.asm (3862): error: Unknown Mnemonic 'tst_x'.
   3862  1119					      tst_x	$7e,fn
unittest.asm (3863): error: Unknown Mnemonic 'set_x'.
   3863  1119					      set_x	$80,$ff
   3864  111b		       e0 7f		      cpx	#$7f
unittest.asm (3865): error: Unknown Mnemonic 'tst_stat'.
   3865  111b					      tst_stat	~fnz
   3866  111d		       ca		      dex
   3867  111e		       e0 7f		      cpx	#$7f
unittest.asm (3868): error: Unknown Mnemonic 'tst_stat'.
   3868  111e					      tst_stat	~fn
   3869  1120		       ca		      dex
   3870  1121		       e0 7f		      cpx	#$7f
unittest.asm (3871): error: Unknown Mnemonic 'tst_x'.
   3871  1121					      tst_x	$7e,~fzc
unittest.asm (3872): error: Unknown Mnemonic 'next_test'.
   3872  1121					      next_test
   3873  1123
   3874  1123							; CPY - zp / abs / #
unittest.asm (3875): error: Unknown Mnemonic 'set_y'.
   3875  1123					      set_y	$80,0
   3876  1123		       c4 4f		      cpy	zp7f
unittest.asm (3877): error: Unknown Mnemonic 'tst_stat'.
   3877  1123					      tst_stat	fc
   3878  1125		       88		      dey
   3879  1126		       c4 4f		      cpy	zp7f
unittest.asm (3880): error: Unknown Mnemonic 'tst_stat'.
   3880  1126					      tst_stat	fzc
   3881  1128		       88		      dey
   3882  1129		       c4 4f		      cpy	zp7f
unittest.asm (3883): error: Unknown Mnemonic 'tst_y'.
   3883  1129					      tst_y	$7e,fn
unittest.asm (3884): error: Unknown Mnemonic 'set_y'.
   3884  1129					      set_y	$80,$ff
   3885  112b		       c4 4f		      cpy	zp7f
unittest.asm (3886): error: Unknown Mnemonic 'tst_stat'.
   3886  112b					      tst_stat	~fnz
   3887  112d		       88		      dey
   3888  112e		       c4 4f		      cpy	zp7f
unittest.asm (3889): error: Unknown Mnemonic 'tst_stat'.
   3889  112e					      tst_stat	~fn
   3890  1130		       88		      dey
   3891  1131		       c4 4f		      cpy	zp7f
unittest.asm (3892): error: Unknown Mnemonic 'tst_y'.
   3892  1131					      tst_y	$7e,~fzc
   3893  1133
unittest.asm (3894): error: Unknown Mnemonic 'set_y'.
   3894  1133					      set_y	$80,0
   3895  1133		       cc 1c 02 	      cpy	abs7f
unittest.asm (3896): error: Unknown Mnemonic 'tst_stat'.
   3896  1133					      tst_stat	fc
   3897  1136		       88		      dey
   3898  1137		       cc 1c 02 	      cpy	abs7f
unittest.asm (3899): error: Unknown Mnemonic 'tst_stat'.
   3899  1137					      tst_stat	fzc
   3900  113a		       88		      dey
   3901  113b		       cc 1c 02 	      cpy	abs7f
unittest.asm (3902): error: Unknown Mnemonic 'tst_y'.
   3902  113b					      tst_y	$7e,fn
unittest.asm (3903): error: Unknown Mnemonic 'set_y'.
   3903  113b					      set_y	$80,$ff
   3904  113e		       cc 1c 02 	      cpy	abs7f
unittest.asm (3905): error: Unknown Mnemonic 'tst_stat'.
   3905  113e					      tst_stat	~fnz
   3906  1141		       88		      dey
   3907  1142		       cc 1c 02 	      cpy	abs7f
unittest.asm (3908): error: Unknown Mnemonic 'tst_stat'.
   3908  1142					      tst_stat	~fn
   3909  1145		       88		      dey
   3910  1146		       cc 1c 02 	      cpy	abs7f
unittest.asm (3911): error: Unknown Mnemonic 'tst_y'.
   3911  1146					      tst_y	$7e,~fzc
   3912  1149
unittest.asm (3913): error: Unknown Mnemonic 'set_y'.
   3913  1149					      set_y	$80,0
   3914  1149		       c0 7f		      cpy	#$7f
unittest.asm (3915): error: Unknown Mnemonic 'tst_stat'.
   3915  1149					      tst_stat	fc
   3916  114b		       88		      dey
   3917  114c		       c0 7f		      cpy	#$7f
unittest.asm (3918): error: Unknown Mnemonic 'tst_stat'.
   3918  114c					      tst_stat	fzc
   3919  114e		       88		      dey
   3920  114f		       c0 7f		      cpy	#$7f
unittest.asm (3921): error: Unknown Mnemonic 'tst_y'.
   3921  114f					      tst_y	$7e,fn
unittest.asm (3922): error: Unknown Mnemonic 'set_y'.
   3922  114f					      set_y	$80,$ff
   3923  1151		       c0 7f		      cpy	#$7f
unittest.asm (3924): error: Unknown Mnemonic 'tst_stat'.
   3924  1151					      tst_stat	~fnz
   3925  1153		       88		      dey
   3926  1154		       c0 7f		      cpy	#$7f
unittest.asm (3927): error: Unknown Mnemonic 'tst_stat'.
   3927  1154					      tst_stat	~fn
   3928  1156		       88		      dey
   3929  1157		       c0 7f		      cpy	#$7f
unittest.asm (3930): error: Unknown Mnemonic 'tst_y'.
   3930  1157					      tst_y	$7e,~fzc
unittest.asm (3931): error: Unknown Mnemonic 'next_test'.
   3931  1157					      next_test
   3932  1159
   3933  1159							; CMP - zp / abs / #
unittest.asm (3934): error: Unknown Mnemonic 'set_a'.
   3934  1159					      set_a	$80,0
   3935  1159		       c5 4f		      cmp	zp7f
unittest.asm (3936): error: Unknown Mnemonic 'tst_a'.
   3936  1159					      tst_a	$80,fc
unittest.asm (3937): error: Unknown Mnemonic 'set_a'.
   3937  1159					      set_a	$7f,0
   3938  115b		       c5 4f		      cmp	zp7f
unittest.asm (3939): error: Unknown Mnemonic 'tst_a'.
   3939  115b					      tst_a	$7f,fzc
unittest.asm (3940): error: Unknown Mnemonic 'set_a'.
   3940  115b					      set_a	$7e,0
   3941  115d		       c5 4f		      cmp	zp7f
unittest.asm (3942): error: Unknown Mnemonic 'tst_a'.
   3942  115d					      tst_a	$7e,fn
unittest.asm (3943): error: Unknown Mnemonic 'set_a'.
   3943  115d					      set_a	$80,$ff
   3944  115f		       c5 4f		      cmp	zp7f
unittest.asm (3945): error: Unknown Mnemonic 'tst_a'.
   3945  115f					      tst_a	$80,~fnz
unittest.asm (3946): error: Unknown Mnemonic 'set_a'.
   3946  115f					      set_a	$7f,$ff
   3947  1161		       c5 4f		      cmp	zp7f
unittest.asm (3948): error: Unknown Mnemonic 'tst_a'.
   3948  1161					      tst_a	$7f,~fn
unittest.asm (3949): error: Unknown Mnemonic 'set_a'.
   3949  1161					      set_a	$7e,$ff
   3950  1163		       c5 4f		      cmp	zp7f
unittest.asm (3951): error: Unknown Mnemonic 'tst_a'.
   3951  1163					      tst_a	$7e,~fzc
   3952  1165
unittest.asm (3953): error: Unknown Mnemonic 'set_a'.
   3953  1165					      set_a	$80,0
   3954  1165		       cd 1c 02 	      cmp	abs7f
unittest.asm (3955): error: Unknown Mnemonic 'tst_a'.
   3955  1165					      tst_a	$80,fc
unittest.asm (3956): error: Unknown Mnemonic 'set_a'.
   3956  1165					      set_a	$7f,0
   3957  1168		       cd 1c 02 	      cmp	abs7f
unittest.asm (3958): error: Unknown Mnemonic 'tst_a'.
   3958  1168					      tst_a	$7f,fzc
unittest.asm (3959): error: Unknown Mnemonic 'set_a'.
   3959  1168					      set_a	$7e,0
   3960  116b		       cd 1c 02 	      cmp	abs7f
unittest.asm (3961): error: Unknown Mnemonic 'tst_a'.
   3961  116b					      tst_a	$7e,fn
unittest.asm (3962): error: Unknown Mnemonic 'set_a'.
   3962  116b					      set_a	$80,$ff
   3963  116e		       cd 1c 02 	      cmp	abs7f
unittest.asm (3964): error: Unknown Mnemonic 'tst_a'.
   3964  116e					      tst_a	$80,~fnz
unittest.asm (3965): error: Unknown Mnemonic 'set_a'.
   3965  116e					      set_a	$7f,$ff
   3966  1171		       cd 1c 02 	      cmp	abs7f
unittest.asm (3967): error: Unknown Mnemonic 'tst_a'.
   3967  1171					      tst_a	$7f,~fn
unittest.asm (3968): error: Unknown Mnemonic 'set_a'.
   3968  1171					      set_a	$7e,$ff
   3969  1174		       cd 1c 02 	      cmp	abs7f
unittest.asm (3970): error: Unknown Mnemonic 'tst_a'.
   3970  1174					      tst_a	$7e,~fzc
   3971  1177
unittest.asm (3972): error: Unknown Mnemonic 'set_a'.
   3972  1177					      set_a	$80,0
   3973  1177		       c9 7f		      cmp	#$7f
unittest.asm (3974): error: Unknown Mnemonic 'tst_a'.
   3974  1177					      tst_a	$80,fc
unittest.asm (3975): error: Unknown Mnemonic 'set_a'.
   3975  1177					      set_a	$7f,0
   3976  1179		       c9 7f		      cmp	#$7f
unittest.asm (3977): error: Unknown Mnemonic 'tst_a'.
   3977  1179					      tst_a	$7f,fzc
unittest.asm (3978): error: Unknown Mnemonic 'set_a'.
   3978  1179					      set_a	$7e,0
   3979  117b		       c9 7f		      cmp	#$7f
unittest.asm (3980): error: Unknown Mnemonic 'tst_a'.
   3980  117b					      tst_a	$7e,fn
unittest.asm (3981): error: Unknown Mnemonic 'set_a'.
   3981  117b					      set_a	$80,$ff
   3982  117d		       c9 7f		      cmp	#$7f
unittest.asm (3983): error: Unknown Mnemonic 'tst_a'.
   3983  117d					      tst_a	$80,~fnz
unittest.asm (3984): error: Unknown Mnemonic 'set_a'.
   3984  117d					      set_a	$7f,$ff
   3985  117f		       c9 7f		      cmp	#$7f
unittest.asm (3986): error: Unknown Mnemonic 'tst_a'.
   3986  117f					      tst_a	$7f,~fn
unittest.asm (3987): error: Unknown Mnemonic 'set_a'.
   3987  117f					      set_a	$7e,$ff
   3988  1181		       c9 7f		      cmp	#$7f
unittest.asm (3989): error: Unknown Mnemonic 'tst_a'.
   3989  1181					      tst_a	$7e,~fzc
   3990  1183
   3991  1183		       a2 04		      ldx	#4	;with indexing by X
unittest.asm (3992): error: Unknown Mnemonic 'set_a'.
   3992  1183					      set_a	$80,0
   3993  1185		       d5 4b		      cmp	zp1,x
unittest.asm (3994): error: Unknown Mnemonic 'tst_a'.
   3994  1185					      tst_a	$80,fc
unittest.asm (3995): error: Unknown Mnemonic 'set_a'.
   3995  1185					      set_a	$7f,0
   3996  1187		       d5 4b		      cmp	zp1,x
unittest.asm (3997): error: Unknown Mnemonic 'tst_a'.
   3997  1187					      tst_a	$7f,fzc
unittest.asm (3998): error: Unknown Mnemonic 'set_a'.
   3998  1187					      set_a	$7e,0
   3999  1189		       d5 4b		      cmp	zp1,x
unittest.asm (4000): error: Unknown Mnemonic 'tst_a'.
   4000  1189					      tst_a	$7e,fn
unittest.asm (4001): error: Unknown Mnemonic 'set_a'.
   4001  1189					      set_a	$80,$ff
   4002  118b		       d5 4b		      cmp	zp1,x
unittest.asm (4003): error: Unknown Mnemonic 'tst_a'.
   4003  118b					      tst_a	$80,~fnz
unittest.asm (4004): error: Unknown Mnemonic 'set_a'.
   4004  118b					      set_a	$7f,$ff
   4005  118d		       d5 4b		      cmp	zp1,x
unittest.asm (4006): error: Unknown Mnemonic 'tst_a'.
   4006  118d					      tst_a	$7f,~fn
unittest.asm (4007): error: Unknown Mnemonic 'set_a'.
   4007  118d					      set_a	$7e,$ff
   4008  118f		       d5 4b		      cmp	zp1,x
unittest.asm (4009): error: Unknown Mnemonic 'tst_a'.
   4009  118f					      tst_a	$7e,~fzc
   4010  1191
unittest.asm (4011): error: Unknown Mnemonic 'set_a'.
   4011  1191					      set_a	$80,0
   4012  1191		       dd 18 02 	      cmp	abs1,x
unittest.asm (4013): error: Unknown Mnemonic 'tst_a'.
   4013  1191					      tst_a	$80,fc
unittest.asm (4014): error: Unknown Mnemonic 'set_a'.
   4014  1191					      set_a	$7f,0
   4015  1194		       dd 18 02 	      cmp	abs1,x
unittest.asm (4016): error: Unknown Mnemonic 'tst_a'.
   4016  1194					      tst_a	$7f,fzc
unittest.asm (4017): error: Unknown Mnemonic 'set_a'.
   4017  1194					      set_a	$7e,0
   4018  1197		       dd 18 02 	      cmp	abs1,x
unittest.asm (4019): error: Unknown Mnemonic 'tst_a'.
   4019  1197					      tst_a	$7e,fn
unittest.asm (4020): error: Unknown Mnemonic 'set_a'.
   4020  1197					      set_a	$80,$ff
   4021  119a		       dd 18 02 	      cmp	abs1,x
unittest.asm (4022): error: Unknown Mnemonic 'tst_a'.
   4022  119a					      tst_a	$80,~fnz
unittest.asm (4023): error: Unknown Mnemonic 'set_a'.
   4023  119a					      set_a	$7f,$ff
   4024  119d		       dd 18 02 	      cmp	abs1,x
unittest.asm (4025): error: Unknown Mnemonic 'tst_a'.
   4025  119d					      tst_a	$7f,~fn
unittest.asm (4026): error: Unknown Mnemonic 'set_a'.
   4026  119d					      set_a	$7e,$ff
   4027  11a0		       dd 18 02 	      cmp	abs1,x
unittest.asm (4028): error: Unknown Mnemonic 'tst_a'.
   4028  11a0					      tst_a	$7e,~fzc
   4029  11a3
   4030  11a3		       a0 04		      ldy	#4	;with indexing by Y
   4031  11a5		       a2 08		      ldx	#8	;with indexed indirect
unittest.asm (4032): error: Unknown Mnemonic 'set_a'.
   4032  11a5					      set_a	$80,0
   4033  11a7		       d9 18 02 	      cmp	abs1,y
unittest.asm (4034): error: Unknown Mnemonic 'tst_a'.
   4034  11a7					      tst_a	$80,fc
unittest.asm (4035): error: Unknown Mnemonic 'set_a'.
   4035  11a7					      set_a	$7f,0
   4036  11aa		       d9 18 02 	      cmp	abs1,y
unittest.asm (4037): error: Unknown Mnemonic 'tst_a'.
   4037  11aa					      tst_a	$7f,fzc
unittest.asm (4038): error: Unknown Mnemonic 'set_a'.
   4038  11aa					      set_a	$7e,0
   4039  11ad		       d9 18 02 	      cmp	abs1,y
unittest.asm (4040): error: Unknown Mnemonic 'tst_a'.
   4040  11ad					      tst_a	$7e,fn
unittest.asm (4041): error: Unknown Mnemonic 'set_a'.
   4041  11ad					      set_a	$80,$ff
   4042  11b0		       d9 18 02 	      cmp	abs1,y
unittest.asm (4043): error: Unknown Mnemonic 'tst_a'.
   4043  11b0					      tst_a	$80,~fnz
unittest.asm (4044): error: Unknown Mnemonic 'set_a'.
   4044  11b0					      set_a	$7f,$ff
   4045  11b3		       d9 18 02 	      cmp	abs1,y
unittest.asm (4046): error: Unknown Mnemonic 'tst_a'.
   4046  11b3					      tst_a	$7f,~fn
unittest.asm (4047): error: Unknown Mnemonic 'set_a'.
   4047  11b3					      set_a	$7e,$ff
   4048  11b6		       d9 18 02 	      cmp	abs1,y
unittest.asm (4049): error: Unknown Mnemonic 'tst_a'.
   4049  11b6					      tst_a	$7e,~fzc
   4050  11b9
unittest.asm (4051): error: Unknown Mnemonic 'set_a'.
   4051  11b9					      set_a	$80,0
   4052  11b9		       c1 5c		      cmp	(ind1,x)
unittest.asm (4053): error: Unknown Mnemonic 'tst_a'.
   4053  11b9					      tst_a	$80,fc
unittest.asm (4054): error: Unknown Mnemonic 'set_a'.
   4054  11b9					      set_a	$7f,0
   4055  11bb		       c1 5c		      cmp	(ind1,x)
unittest.asm (4056): error: Unknown Mnemonic 'tst_a'.
   4056  11bb					      tst_a	$7f,fzc
unittest.asm (4057): error: Unknown Mnemonic 'set_a'.
   4057  11bb					      set_a	$7e,0
   4058  11bd		       c1 5c		      cmp	(ind1,x)
unittest.asm (4059): error: Unknown Mnemonic 'tst_a'.
   4059  11bd					      tst_a	$7e,fn
unittest.asm (4060): error: Unknown Mnemonic 'set_a'.
   4060  11bd					      set_a	$80,$ff
   4061  11bf		       c1 5c		      cmp	(ind1,x)
unittest.asm (4062): error: Unknown Mnemonic 'tst_a'.
   4062  11bf					      tst_a	$80,~fnz
unittest.asm (4063): error: Unknown Mnemonic 'set_a'.
   4063  11bf					      set_a	$7f,$ff
   4064  11c1		       c1 5c		      cmp	(ind1,x)
unittest.asm (4065): error: Unknown Mnemonic 'tst_a'.
   4065  11c1					      tst_a	$7f,~fn
unittest.asm (4066): error: Unknown Mnemonic 'set_a'.
   4066  11c1					      set_a	$7e,$ff
   4067  11c3		       c1 5c		      cmp	(ind1,x)
unittest.asm (4068): error: Unknown Mnemonic 'tst_a'.
   4068  11c3					      tst_a	$7e,~fzc
   4069  11c5
unittest.asm (4070): error: Unknown Mnemonic 'set_a'.
   4070  11c5					      set_a	$80,0
   4071  11c5		       d1 5c		      cmp	(ind1),y
unittest.asm (4072): error: Unknown Mnemonic 'tst_a'.
   4072  11c5					      tst_a	$80,fc
unittest.asm (4073): error: Unknown Mnemonic 'set_a'.
   4073  11c5					      set_a	$7f,0
   4074  11c7		       d1 5c		      cmp	(ind1),y
unittest.asm (4075): error: Unknown Mnemonic 'tst_a'.
   4075  11c7					      tst_a	$7f,fzc
unittest.asm (4076): error: Unknown Mnemonic 'set_a'.
   4076  11c7					      set_a	$7e,0
   4077  11c9		       d1 5c		      cmp	(ind1),y
unittest.asm (4078): error: Unknown Mnemonic 'tst_a'.
   4078  11c9					      tst_a	$7e,fn
unittest.asm (4079): error: Unknown Mnemonic 'set_a'.
   4079  11c9					      set_a	$80,$ff
   4080  11cb		       d1 5c		      cmp	(ind1),y
unittest.asm (4081): error: Unknown Mnemonic 'tst_a'.
   4081  11cb					      tst_a	$80,~fnz
unittest.asm (4082): error: Unknown Mnemonic 'set_a'.
   4082  11cb					      set_a	$7f,$ff
   4083  11cd		       d1 5c		      cmp	(ind1),y
unittest.asm (4084): error: Unknown Mnemonic 'tst_a'.
   4084  11cd					      tst_a	$7f,~fn
unittest.asm (4085): error: Unknown Mnemonic 'set_a'.
   4085  11cd					      set_a	$7e,$ff
   4086  11cf		       d1 5c		      cmp	(ind1),y
unittest.asm (4087): error: Unknown Mnemonic 'tst_a'.
   4087  11cf					      tst_a	$7e,~fzc
unittest.asm (4088): error: Unknown Mnemonic 'next_test'.
   4088  11cf					      next_test
   4089  11d1
   4090  11d1							; testing shifts - ASL LSR ROL ROR all addressing modes
   4091  11d1							; shifts - accumulator
   4092  11d1		       a2 05		      ldx	#5
   4093  11d3				   tasl
unittest.asm (4094): error: Unknown Mnemonic 'set_ax'.
   4094  11d3					      set_ax	zps,0
   4095  11d3		       0e 00 00 	      asl	a
unittest.asm (4096): error: Unknown Mnemonic 'tst_ax'.
   4096  11d3					      tst_ax	rASL,fASL,0
   4097  11d6		       ca		      dex
   4098  11d7		       10 fa		      bpl	tasl
   4099  11d9		       a2 05		      ldx	#5
   4100  11db				   tasl1
unittest.asm (4101): error: Unknown Mnemonic 'set_ax'.
   4101  11db					      set_ax	zps,$ff
   4102  11db		       0e 00 00 	      asl	a
unittest.asm (4103): error: Unknown Mnemonic 'tst_ax'.
   4103  11db					      tst_ax	rASL,fASL,$ff-fnzc
   4104  11de		       ca		      dex
   4105  11df		       10 fa		      bpl	tasl1
   4106  11e1
   4107  11e1		       a2 05		      ldx	#5
   4108  11e3				   tlsr
unittest.asm (4109): error: Unknown Mnemonic 'set_ax'.
   4109  11e3					      set_ax	zps,0
   4110  11e3		       4e 00 00 	      lsr	a
unittest.asm (4111): error: Unknown Mnemonic 'tst_ax'.
   4111  11e3					      tst_ax	rLSR,fLSR,0
   4112  11e6		       ca		      dex
   4113  11e7		       10 fa		      bpl	tlsr
   4114  11e9		       a2 05		      ldx	#5
   4115  11eb				   tlsr1
unittest.asm (4116): error: Unknown Mnemonic 'set_ax'.
   4116  11eb					      set_ax	zps,$ff
   4117  11eb		       4e 00 00 	      lsr	a
unittest.asm (4118): error: Unknown Mnemonic 'tst_ax'.
   4118  11eb					      tst_ax	rLSR,fLSR,$ff-fnzc
   4119  11ee		       ca		      dex
   4120  11ef		       10 fa		      bpl	tlsr1
   4121  11f1
   4122  11f1		       a2 05		      ldx	#5
   4123  11f3				   trol
unittest.asm (4124): error: Unknown Mnemonic 'set_ax'.
   4124  11f3					      set_ax	zps,0
   4125  11f3		       2e 00 00 	      rol	a
unittest.asm (4126): error: Unknown Mnemonic 'tst_ax'.
   4126  11f3					      tst_ax	rROL,fROL,0
   4127  11f6		       ca		      dex
   4128  11f7		       10 fa		      bpl	trol
   4129  11f9		       a2 05		      ldx	#5
   4130  11fb				   trol1
unittest.asm (4131): error: Unknown Mnemonic 'set_ax'.
   4131  11fb					      set_ax	zps,$ff-fc
   4132  11fb		       2e 00 00 	      rol	a
unittest.asm (4133): error: Unknown Mnemonic 'tst_ax'.
   4133  11fb					      tst_ax	rROL,fROL,$ff-fnzc
   4134  11fe		       ca		      dex
   4135  11ff		       10 fa		      bpl	trol1
   4136  1201
   4137  1201		       a2 05		      ldx	#5
   4138  1203				   trolc
unittest.asm (4139): error: Unknown Mnemonic 'set_ax'.
   4139  1203					      set_ax	zps,fc
   4140  1203		       2e 00 00 	      rol	a
unittest.asm (4141): error: Unknown Mnemonic 'tst_ax'.
   4141  1203					      tst_ax	rROLc,fROLc,0
   4142  1206		       ca		      dex
   4143  1207		       10 fa		      bpl	trolc
   4144  1209		       a2 05		      ldx	#5
   4145  120b				   trolc1
unittest.asm (4146): error: Unknown Mnemonic 'set_ax'.
   4146  120b					      set_ax	zps,$ff
   4147  120b		       2e 00 00 	      rol	a
unittest.asm (4148): error: Unknown Mnemonic 'tst_ax'.
   4148  120b					      tst_ax	rROLc,fROLc,$ff-fnzc
   4149  120e		       ca		      dex
   4150  120f		       10 fa		      bpl	trolc1
   4151  1211
   4152  1211		       a2 05		      ldx	#5
   4153  1213				   tror
unittest.asm (4154): error: Unknown Mnemonic 'set_ax'.
   4154  1213					      set_ax	zps,0
   4155  1213		       6e 00 00 	      ror	a
unittest.asm (4156): error: Unknown Mnemonic 'tst_ax'.
   4156  1213					      tst_ax	rROR,fROR,0
   4157  1216		       ca		      dex
   4158  1217		       10 fa		      bpl	tror
   4159  1219		       a2 05		      ldx	#5
   4160  121b				   tror1
unittest.asm (4161): error: Unknown Mnemonic 'set_ax'.
   4161  121b					      set_ax	zps,$ff-fc
   4162  121b		       6e 00 00 	      ror	a
unittest.asm (4163): error: Unknown Mnemonic 'tst_ax'.
   4163  121b					      tst_ax	rROR,fROR,$ff-fnzc
   4164  121e		       ca		      dex
   4165  121f		       10 fa		      bpl	tror1
   4166  1221
   4167  1221		       a2 05		      ldx	#5
   4168  1223				   trorc
unittest.asm (4169): error: Unknown Mnemonic 'set_ax'.
   4169  1223					      set_ax	zps,fc
   4170  1223		       6e 00 00 	      ror	a
unittest.asm (4171): error: Unknown Mnemonic 'tst_ax'.
   4171  1223					      tst_ax	rRORc,fRORc,0
   4172  1226		       ca		      dex
   4173  1227		       10 fa		      bpl	trorc
   4174  1229		       a2 05		      ldx	#5
   4175  122b				   trorc1
unittest.asm (4176): error: Unknown Mnemonic 'set_ax'.
   4176  122b					      set_ax	zps,$ff
   4177  122b		       6e 00 00 	      ror	a
unittest.asm (4178): error: Unknown Mnemonic 'tst_ax'.
   4178  122b					      tst_ax	rRORc,fRORc,$ff-fnzc
   4179  122e		       ca		      dex
   4180  122f		       10 fa		      bpl	trorc1
unittest.asm (4181): error: Unknown Mnemonic 'next_test'.
   4181  122f					      next_test
   4182  1231
   4183  1231							; shifts - zeropage
   4184  1231		       a2 05		      ldx	#5
   4185  1233				   tasl2
unittest.asm (4186): error: Unknown Mnemonic 'set_z'.
   4186  1233					      set_z	zps,0
   4187  1233		       06 42		      asl	zpt
unittest.asm (4188): error: Unknown Mnemonic 'tst_z'.
   4188  1233					      tst_z	rASL,fASL,0
   4189  1235		       ca		      dex
   4190  1236		       10 fb		      bpl	tasl2
   4191  1238		       a2 05		      ldx	#5
   4192  123a				   tasl3
unittest.asm (4193): error: Unknown Mnemonic 'set_z'.
   4193  123a					      set_z	zps,$ff
   4194  123a		       06 42		      asl	zpt
unittest.asm (4195): error: Unknown Mnemonic 'tst_z'.
   4195  123a					      tst_z	rASL,fASL,$ff-fnzc
   4196  123c		       ca		      dex
   4197  123d		       10 fb		      bpl	tasl3
   4198  123f
   4199  123f		       a2 05		      ldx	#5
   4200  1241				   tlsr2
unittest.asm (4201): error: Unknown Mnemonic 'set_z'.
   4201  1241					      set_z	zps,0
   4202  1241		       46 42		      lsr	zpt
unittest.asm (4203): error: Unknown Mnemonic 'tst_z'.
   4203  1241					      tst_z	rLSR,fLSR,0
   4204  1243		       ca		      dex
   4205  1244		       10 fb		      bpl	tlsr2
   4206  1246		       a2 05		      ldx	#5
   4207  1248				   tlsr3
unittest.asm (4208): error: Unknown Mnemonic 'set_z'.
   4208  1248					      set_z	zps,$ff
   4209  1248		       46 42		      lsr	zpt
unittest.asm (4210): error: Unknown Mnemonic 'tst_z'.
   4210  1248					      tst_z	rLSR,fLSR,$ff-fnzc
   4211  124a		       ca		      dex
   4212  124b		       10 fb		      bpl	tlsr3
   4213  124d
   4214  124d		       a2 05		      ldx	#5
   4215  124f				   trol2
unittest.asm (4216): error: Unknown Mnemonic 'set_z'.
   4216  124f					      set_z	zps,0
   4217  124f		       26 42		      rol	zpt
unittest.asm (4218): error: Unknown Mnemonic 'tst_z'.
   4218  124f					      tst_z	rROL,fROL,0
   4219  1251		       ca		      dex
   4220  1252		       10 fb		      bpl	trol2
   4221  1254		       a2 05		      ldx	#5
   4222  1256				   trol3
unittest.asm (4223): error: Unknown Mnemonic 'set_z'.
   4223  1256					      set_z	zps,$ff-fc
   4224  1256		       26 42		      rol	zpt
unittest.asm (4225): error: Unknown Mnemonic 'tst_z'.
   4225  1256					      tst_z	rROL,fROL,$ff-fnzc
   4226  1258		       ca		      dex
   4227  1259		       10 fb		      bpl	trol3
   4228  125b
   4229  125b		       a2 05		      ldx	#5
   4230  125d				   trolc2
unittest.asm (4231): error: Unknown Mnemonic 'set_z'.
   4231  125d					      set_z	zps,fc
   4232  125d		       26 42		      rol	zpt
unittest.asm (4233): error: Unknown Mnemonic 'tst_z'.
   4233  125d					      tst_z	rROLc,fROLc,0
   4234  125f		       ca		      dex
   4235  1260		       10 fb		      bpl	trolc2
   4236  1262		       a2 05		      ldx	#5
   4237  1264				   trolc3
unittest.asm (4238): error: Unknown Mnemonic 'set_z'.
   4238  1264					      set_z	zps,$ff
   4239  1264		       26 42		      rol	zpt
unittest.asm (4240): error: Unknown Mnemonic 'tst_z'.
   4240  1264					      tst_z	rROLc,fROLc,$ff-fnzc
   4241  1266		       ca		      dex
   4242  1267		       10 fb		      bpl	trolc3
   4243  1269
   4244  1269		       a2 05		      ldx	#5
   4245  126b				   tror2
unittest.asm (4246): error: Unknown Mnemonic 'set_z'.
   4246  126b					      set_z	zps,0
   4247  126b		       66 42		      ror	zpt
unittest.asm (4248): error: Unknown Mnemonic 'tst_z'.
   4248  126b					      tst_z	rROR,fROR,0
   4249  126d		       ca		      dex
   4250  126e		       10 fb		      bpl	tror2
   4251  1270		       a2 05		      ldx	#5
   4252  1272				   tror3
unittest.asm (4253): error: Unknown Mnemonic 'set_z'.
   4253  1272					      set_z	zps,$ff-fc
   4254  1272		       66 42		      ror	zpt
unittest.asm (4255): error: Unknown Mnemonic 'tst_z'.
   4255  1272					      tst_z	rROR,fROR,$ff-fnzc
   4256  1274		       ca		      dex
   4257  1275		       10 fb		      bpl	tror3
   4258  1277
   4259  1277		       a2 05		      ldx	#5
   4260  1279				   trorc2
unittest.asm (4261): error: Unknown Mnemonic 'set_z'.
   4261  1279					      set_z	zps,fc
   4262  1279		       66 42		      ror	zpt
unittest.asm (4263): error: Unknown Mnemonic 'tst_z'.
   4263  1279					      tst_z	rRORc,fRORc,0
   4264  127b		       ca		      dex
   4265  127c		       10 fb		      bpl	trorc2
   4266  127e		       a2 05		      ldx	#5
   4267  1280				   trorc3
unittest.asm (4268): error: Unknown Mnemonic 'set_z'.
   4268  1280					      set_z	zps,$ff
   4269  1280		       66 42		      ror	zpt
unittest.asm (4270): error: Unknown Mnemonic 'tst_z'.
   4270  1280					      tst_z	rRORc,fRORc,$ff-fnzc
   4271  1282		       ca		      dex
   4272  1283		       10 fb		      bpl	trorc3
unittest.asm (4273): error: Unknown Mnemonic 'next_test'.
   4273  1283					      next_test
   4274  1285
   4275  1285							; shifts - absolute
   4276  1285		       a2 05		      ldx	#5
   4277  1287				   tasl4
unittest.asm (4278): error: Unknown Mnemonic 'set_abs'.
   4278  1287					      set_abs	zps,0
   4279  1287		       0e 03 02 	      asl	abst
unittest.asm (4280): error: Unknown Mnemonic 'tst_abs'.
   4280  1287					      tst_abs	rASL,fASL,0
   4281  128a		       ca		      dex
   4282  128b		       10 fa		      bpl	tasl4
   4283  128d		       a2 05		      ldx	#5
   4284  128f				   tasl5
unittest.asm (4285): error: Unknown Mnemonic 'set_abs'.
   4285  128f					      set_abs	zps,$ff
   4286  128f		       0e 03 02 	      asl	abst
unittest.asm (4287): error: Unknown Mnemonic 'tst_abs'.
   4287  128f					      tst_abs	rASL,fASL,$ff-fnzc
   4288  1292		       ca		      dex
   4289  1293		       10 fa		      bpl	tasl5
   4290  1295
   4291  1295		       a2 05		      ldx	#5
   4292  1297				   tlsr4
unittest.asm (4293): error: Unknown Mnemonic 'set_abs'.
   4293  1297					      set_abs	zps,0
   4294  1297		       4e 03 02 	      lsr	abst
unittest.asm (4295): error: Unknown Mnemonic 'tst_abs'.
   4295  1297					      tst_abs	rLSR,fLSR,0
   4296  129a		       ca		      dex
   4297  129b		       10 fa		      bpl	tlsr4
   4298  129d		       a2 05		      ldx	#5
   4299  129f				   tlsr5
unittest.asm (4300): error: Unknown Mnemonic 'set_abs'.
   4300  129f					      set_abs	zps,$ff
   4301  129f		       4e 03 02 	      lsr	abst
unittest.asm (4302): error: Unknown Mnemonic 'tst_abs'.
   4302  129f					      tst_abs	rLSR,fLSR,$ff-fnzc
   4303  12a2		       ca		      dex
   4304  12a3		       10 fa		      bpl	tlsr5
   4305  12a5
   4306  12a5		       a2 05		      ldx	#5
   4307  12a7				   trol4
unittest.asm (4308): error: Unknown Mnemonic 'set_abs'.
   4308  12a7					      set_abs	zps,0
   4309  12a7		       2e 03 02 	      rol	abst
unittest.asm (4310): error: Unknown Mnemonic 'tst_abs'.
   4310  12a7					      tst_abs	rROL,fROL,0
   4311  12aa		       ca		      dex
   4312  12ab		       10 fa		      bpl	trol4
   4313  12ad		       a2 05		      ldx	#5
   4314  12af				   trol5
unittest.asm (4315): error: Unknown Mnemonic 'set_abs'.
   4315  12af					      set_abs	zps,$ff-fc
   4316  12af		       2e 03 02 	      rol	abst
unittest.asm (4317): error: Unknown Mnemonic 'tst_abs'.
   4317  12af					      tst_abs	rROL,fROL,$ff-fnzc
   4318  12b2		       ca		      dex
   4319  12b3		       10 fa		      bpl	trol5
   4320  12b5
   4321  12b5		       a2 05		      ldx	#5
   4322  12b7				   trolc4
unittest.asm (4323): error: Unknown Mnemonic 'set_abs'.
   4323  12b7					      set_abs	zps,fc
   4324  12b7		       2e 03 02 	      rol	abst
unittest.asm (4325): error: Unknown Mnemonic 'tst_abs'.
   4325  12b7					      tst_abs	rROLc,fROLc,0
   4326  12ba		       ca		      dex
   4327  12bb		       10 fa		      bpl	trolc4
   4328  12bd		       a2 05		      ldx	#5
   4329  12bf				   trolc5
unittest.asm (4330): error: Unknown Mnemonic 'set_abs'.
   4330  12bf					      set_abs	zps,$ff
   4331  12bf		       2e 03 02 	      rol	abst
unittest.asm (4332): error: Unknown Mnemonic 'tst_abs'.
   4332  12bf					      tst_abs	rROLc,fROLc,$ff-fnzc
   4333  12c2		       ca		      dex
   4334  12c3		       10 fa		      bpl	trolc5
   4335  12c5
   4336  12c5		       a2 05		      ldx	#5
   4337  12c7				   tror4
unittest.asm (4338): error: Unknown Mnemonic 'set_abs'.
   4338  12c7					      set_abs	zps,0
   4339  12c7		       6e 03 02 	      ror	abst
unittest.asm (4340): error: Unknown Mnemonic 'tst_abs'.
   4340  12c7					      tst_abs	rROR,fROR,0
   4341  12ca		       ca		      dex
   4342  12cb		       10 fa		      bpl	tror4
   4343  12cd		       a2 05		      ldx	#5
   4344  12cf				   tror5
unittest.asm (4345): error: Unknown Mnemonic 'set_abs'.
   4345  12cf					      set_abs	zps,$ff-fc
   4346  12cf		       6e 03 02 	      ror	abst
unittest.asm (4347): error: Unknown Mnemonic 'tst_abs'.
   4347  12cf					      tst_abs	rROR,fROR,$ff-fnzc
   4348  12d2		       ca		      dex
   4349  12d3		       10 fa		      bpl	tror5
   4350  12d5
   4351  12d5		       a2 05		      ldx	#5
   4352  12d7				   trorc4
unittest.asm (4353): error: Unknown Mnemonic 'set_abs'.
   4353  12d7					      set_abs	zps,fc
   4354  12d7		       6e 03 02 	      ror	abst
unittest.asm (4355): error: Unknown Mnemonic 'tst_abs'.
   4355  12d7					      tst_abs	rRORc,fRORc,0
   4356  12da		       ca		      dex
   4357  12db		       10 fa		      bpl	trorc4
   4358  12dd		       a2 05		      ldx	#5
   4359  12df				   trorc5
unittest.asm (4360): error: Unknown Mnemonic 'set_abs'.
   4360  12df					      set_abs	zps,$ff
   4361  12df		       6e 03 02 	      ror	abst
unittest.asm (4362): error: Unknown Mnemonic 'tst_abs'.
   4362  12df					      tst_abs	rRORc,fRORc,$ff-fnzc
   4363  12e2		       ca		      dex
   4364  12e3		       10 fa		      bpl	trorc5
unittest.asm (4365): error: Unknown Mnemonic 'next_test'.
   4365  12e3					      next_test
   4366  12e5
   4367  12e5							; shifts - zp indexed
   4368  12e5		       a2 05		      ldx	#5
   4369  12e7				   tasl6
unittest.asm (4370): error: Unknown Mnemonic 'set_zx'.
   4370  12e7					      set_zx	zps,0
   4371  12e7		       16 42		      asl	zpt,x
unittest.asm (4372): error: Unknown Mnemonic 'tst_zx'.
   4372  12e7					      tst_zx	rASL,fASL,0
   4373  12e9		       ca		      dex
   4374  12ea		       10 fb		      bpl	tasl6
   4375  12ec		       a2 05		      ldx	#5
   4376  12ee				   tasl7
unittest.asm (4377): error: Unknown Mnemonic 'set_zx'.
   4377  12ee					      set_zx	zps,$ff
   4378  12ee		       16 42		      asl	zpt,x
unittest.asm (4379): error: Unknown Mnemonic 'tst_zx'.
   4379  12ee					      tst_zx	rASL,fASL,$ff-fnzc
   4380  12f0		       ca		      dex
   4381  12f1		       10 fb		      bpl	tasl7
   4382  12f3
   4383  12f3		       a2 05		      ldx	#5
   4384  12f5				   tlsr6
unittest.asm (4385): error: Unknown Mnemonic 'set_zx'.
   4385  12f5					      set_zx	zps,0
   4386  12f5		       56 42		      lsr	zpt,x
unittest.asm (4387): error: Unknown Mnemonic 'tst_zx'.
   4387  12f5					      tst_zx	rLSR,fLSR,0
   4388  12f7		       ca		      dex
   4389  12f8		       10 fb		      bpl	tlsr6
   4390  12fa		       a2 05		      ldx	#5
   4391  12fc				   tlsr7
unittest.asm (4392): error: Unknown Mnemonic 'set_zx'.
   4392  12fc					      set_zx	zps,$ff
   4393  12fc		       56 42		      lsr	zpt,x
unittest.asm (4394): error: Unknown Mnemonic 'tst_zx'.
   4394  12fc					      tst_zx	rLSR,fLSR,$ff-fnzc
   4395  12fe		       ca		      dex
   4396  12ff		       10 fb		      bpl	tlsr7
   4397  1301
   4398  1301		       a2 05		      ldx	#5
   4399  1303				   trol6
unittest.asm (4400): error: Unknown Mnemonic 'set_zx'.
   4400  1303					      set_zx	zps,0
   4401  1303		       36 42		      rol	zpt,x
unittest.asm (4402): error: Unknown Mnemonic 'tst_zx'.
   4402  1303					      tst_zx	rROL,fROL,0
   4403  1305		       ca		      dex
   4404  1306		       10 fb		      bpl	trol6
   4405  1308		       a2 05		      ldx	#5
   4406  130a				   trol7
unittest.asm (4407): error: Unknown Mnemonic 'set_zx'.
   4407  130a					      set_zx	zps,$ff-fc
   4408  130a		       36 42		      rol	zpt,x
unittest.asm (4409): error: Unknown Mnemonic 'tst_zx'.
   4409  130a					      tst_zx	rROL,fROL,$ff-fnzc
   4410  130c		       ca		      dex
   4411  130d		       10 fb		      bpl	trol7
   4412  130f
   4413  130f		       a2 05		      ldx	#5
   4414  1311				   trolc6
unittest.asm (4415): error: Unknown Mnemonic 'set_zx'.
   4415  1311					      set_zx	zps,fc
   4416  1311		       36 42		      rol	zpt,x
unittest.asm (4417): error: Unknown Mnemonic 'tst_zx'.
   4417  1311					      tst_zx	rROLc,fROLc,0
   4418  1313		       ca		      dex
   4419  1314		       10 fb		      bpl	trolc6
   4420  1316		       a2 05		      ldx	#5
   4421  1318				   trolc7
unittest.asm (4422): error: Unknown Mnemonic 'set_zx'.
   4422  1318					      set_zx	zps,$ff
   4423  1318		       36 42		      rol	zpt,x
unittest.asm (4424): error: Unknown Mnemonic 'tst_zx'.
   4424  1318					      tst_zx	rROLc,fROLc,$ff-fnzc
   4425  131a		       ca		      dex
   4426  131b		       10 fb		      bpl	trolc7
   4427  131d
   4428  131d		       a2 05		      ldx	#5
   4429  131f				   tror6
unittest.asm (4430): error: Unknown Mnemonic 'set_zx'.
   4430  131f					      set_zx	zps,0
   4431  131f		       76 42		      ror	zpt,x
unittest.asm (4432): error: Unknown Mnemonic 'tst_zx'.
   4432  131f					      tst_zx	rROR,fROR,0
   4433  1321		       ca		      dex
   4434  1322		       10 fb		      bpl	tror6
   4435  1324		       a2 05		      ldx	#5
   4436  1326				   tror7
unittest.asm (4437): error: Unknown Mnemonic 'set_zx'.
   4437  1326					      set_zx	zps,$ff-fc
   4438  1326		       76 42		      ror	zpt,x
unittest.asm (4439): error: Unknown Mnemonic 'tst_zx'.
   4439  1326					      tst_zx	rROR,fROR,$ff-fnzc
   4440  1328		       ca		      dex
   4441  1329		       10 fb		      bpl	tror7
   4442  132b
   4443  132b		       a2 05		      ldx	#5
   4444  132d				   trorc6
unittest.asm (4445): error: Unknown Mnemonic 'set_zx'.
   4445  132d					      set_zx	zps,fc
   4446  132d		       76 42		      ror	zpt,x
unittest.asm (4447): error: Unknown Mnemonic 'tst_zx'.
   4447  132d					      tst_zx	rRORc,fRORc,0
   4448  132f		       ca		      dex
   4449  1330		       10 fb		      bpl	trorc6
   4450  1332		       a2 05		      ldx	#5
   4451  1334				   trorc7
unittest.asm (4452): error: Unknown Mnemonic 'set_zx'.
   4452  1334					      set_zx	zps,$ff
   4453  1334		       76 42		      ror	zpt,x
unittest.asm (4454): error: Unknown Mnemonic 'tst_zx'.
   4454  1334					      tst_zx	rRORc,fRORc,$ff-fnzc
   4455  1336		       ca		      dex
   4456  1337		       10 fb		      bpl	trorc7
unittest.asm (4457): error: Unknown Mnemonic 'next_test'.
   4457  1337					      next_test
   4458  1339
   4459  1339							; shifts - abs indexed
   4460  1339		       a2 05		      ldx	#5
   4461  133b				   tasl8
unittest.asm (4462): error: Unknown Mnemonic 'set_absx'.
   4462  133b					      set_absx	zps,0
   4463  133b		       1e 03 02 	      asl	abst,x
unittest.asm (4464): error: Unknown Mnemonic 'tst_absx'.
   4464  133b					      tst_absx	rASL,fASL,0
   4465  133e		       ca		      dex
   4466  133f		       10 fa		      bpl	tasl8
   4467  1341		       a2 05		      ldx	#5
   4468  1343				   tasl9
unittest.asm (4469): error: Unknown Mnemonic 'set_absx'.
   4469  1343					      set_absx	zps,$ff
   4470  1343		       1e 03 02 	      asl	abst,x
unittest.asm (4471): error: Unknown Mnemonic 'tst_absx'.
   4471  1343					      tst_absx	rASL,fASL,$ff-fnzc
   4472  1346		       ca		      dex
   4473  1347		       10 fa		      bpl	tasl9
   4474  1349
   4475  1349		       a2 05		      ldx	#5
   4476  134b				   tlsr8
unittest.asm (4477): error: Unknown Mnemonic 'set_absx'.
   4477  134b					      set_absx	zps,0
   4478  134b		       5e 03 02 	      lsr	abst,x
unittest.asm (4479): error: Unknown Mnemonic 'tst_absx'.
   4479  134b					      tst_absx	rLSR,fLSR,0
   4480  134e		       ca		      dex
   4481  134f		       10 fa		      bpl	tlsr8
   4482  1351		       a2 05		      ldx	#5
   4483  1353				   tlsr9
unittest.asm (4484): error: Unknown Mnemonic 'set_absx'.
   4484  1353					      set_absx	zps,$ff
   4485  1353		       5e 03 02 	      lsr	abst,x
unittest.asm (4486): error: Unknown Mnemonic 'tst_absx'.
   4486  1353					      tst_absx	rLSR,fLSR,$ff-fnzc
   4487  1356		       ca		      dex
   4488  1357		       10 fa		      bpl	tlsr9
   4489  1359
   4490  1359		       a2 05		      ldx	#5
   4491  135b				   trol8
unittest.asm (4492): error: Unknown Mnemonic 'set_absx'.
   4492  135b					      set_absx	zps,0
   4493  135b		       3e 03 02 	      rol	abst,x
unittest.asm (4494): error: Unknown Mnemonic 'tst_absx'.
   4494  135b					      tst_absx	rROL,fROL,0
   4495  135e		       ca		      dex
   4496  135f		       10 fa		      bpl	trol8
   4497  1361		       a2 05		      ldx	#5
   4498  1363				   trol9
unittest.asm (4499): error: Unknown Mnemonic 'set_absx'.
   4499  1363					      set_absx	zps,$ff-fc
   4500  1363		       3e 03 02 	      rol	abst,x
unittest.asm (4501): error: Unknown Mnemonic 'tst_absx'.
   4501  1363					      tst_absx	rROL,fROL,$ff-fnzc
   4502  1366		       ca		      dex
   4503  1367		       10 fa		      bpl	trol9
   4504  1369
   4505  1369		       a2 05		      ldx	#5
   4506  136b				   trolc8
unittest.asm (4507): error: Unknown Mnemonic 'set_absx'.
   4507  136b					      set_absx	zps,fc
   4508  136b		       3e 03 02 	      rol	abst,x
unittest.asm (4509): error: Unknown Mnemonic 'tst_absx'.
   4509  136b					      tst_absx	rROLc,fROLc,0
   4510  136e		       ca		      dex
   4511  136f		       10 fa		      bpl	trolc8
   4512  1371		       a2 05		      ldx	#5
   4513  1373				   trolc9
unittest.asm (4514): error: Unknown Mnemonic 'set_absx'.
   4514  1373					      set_absx	zps,$ff
   4515  1373		       3e 03 02 	      rol	abst,x
unittest.asm (4516): error: Unknown Mnemonic 'tst_absx'.
   4516  1373					      tst_absx	rROLc,fROLc,$ff-fnzc
   4517  1376		       ca		      dex
   4518  1377		       10 fa		      bpl	trolc9
   4519  1379
   4520  1379		       a2 05		      ldx	#5
   4521  137b				   tror8
unittest.asm (4522): error: Unknown Mnemonic 'set_absx'.
   4522  137b					      set_absx	zps,0
   4523  137b		       7e 03 02 	      ror	abst,x
unittest.asm (4524): error: Unknown Mnemonic 'tst_absx'.
   4524  137b					      tst_absx	rROR,fROR,0
   4525  137e		       ca		      dex
   4526  137f		       10 fa		      bpl	tror8
   4527  1381		       a2 05		      ldx	#5
   4528  1383				   tror9
unittest.asm (4529): error: Unknown Mnemonic 'set_absx'.
   4529  1383					      set_absx	zps,$ff-fc
   4530  1383		       7e 03 02 	      ror	abst,x
unittest.asm (4531): error: Unknown Mnemonic 'tst_absx'.
   4531  1383					      tst_absx	rROR,fROR,$ff-fnzc
   4532  1386		       ca		      dex
   4533  1387		       10 fa		      bpl	tror9
   4534  1389
   4535  1389		       a2 05		      ldx	#5
   4536  138b				   trorc8
unittest.asm (4537): error: Unknown Mnemonic 'set_absx'.
   4537  138b					      set_absx	zps,fc
   4538  138b		       7e 03 02 	      ror	abst,x
unittest.asm (4539): error: Unknown Mnemonic 'tst_absx'.
   4539  138b					      tst_absx	rRORc,fRORc,0
   4540  138e		       ca		      dex
   4541  138f		       10 fa		      bpl	trorc8
   4542  1391		       a2 05		      ldx	#5
   4543  1393				   trorc9
unittest.asm (4544): error: Unknown Mnemonic 'set_absx'.
   4544  1393					      set_absx	zps,$ff
   4545  1393		       7e 03 02 	      ror	abst,x
unittest.asm (4546): error: Unknown Mnemonic 'tst_absx'.
   4546  1393					      tst_absx	rRORc,fRORc,$ff-fnzc
   4547  1396		       ca		      dex
   4548  1397		       10 fa		      bpl	trorc9
unittest.asm (4549): error: Unknown Mnemonic 'next_test'.
   4549  1397					      next_test
   4550  1399
   4551  1399							; testing memory increment/decrement - INC DEC all addressing modes
   4552  1399							; zeropage
   4553  1399		       a2 00		      ldx	#0
   4554  139b		       a9 7e		      lda	#$7e
   4555  139d		       85 42		      sta	zpt
   4556  139f				   tinc
unittest.asm (4557): error: Unknown Mnemonic 'set_stat'.
   4557  139f					      set_stat	0
   4558  139f		       e6 42		      inc	zpt
unittest.asm (4559): error: Unknown Mnemonic 'tst_z'.
   4559  139f					      tst_z	rINC,fINC,0
   4560  13a1		       e8		      inx
   4561  13a2		       e0 02		      cpx	#2
   4562  13a4		       d0 02		      bne	tinc1
   4563  13a6		       a9 fe		      lda	#$fe
   4564  13a8		       85 42		      sta	zpt
   4565  13aa		       e0 05	   tinc1      cpx	#5
   4566  13ac		       d0 f1		      bne	tinc
   4567  13ae		       ca		      dex
   4568  13af		       e6 42		      inc	zpt
   4569  13b1				   tdec
unittest.asm (4570): error: Unknown Mnemonic 'set_stat'.
   4570  13b1					      set_stat	0
   4571  13b1		       c6 42		      dec	zpt
unittest.asm (4572): error: Unknown Mnemonic 'tst_z'.
   4572  13b1					      tst_z	rINC,fINC,0
   4573  13b3		       ca		      dex
   4574  13b4		       30 42		      bmi	tdec1
   4575  13b6		       e0 01		      cpx	#1
   4576  13b8		       d0 f7		      bne	tdec
   4577  13ba		       a9 81		      lda	#$81
   4578  13bc		       85 42		      sta	zpt
   4579  13be		       d0 f1		      bne	tdec
   4580  13c0				   tdec1
   4581  13c0		       a2 00		      ldx	#0
   4582  13c2		       a9 7e		      lda	#$7e
   4583  13c4		       85 42		      sta	zpt
   4584  13c6				   tinc10
unittest.asm (4585): error: Unknown Mnemonic 'set_stat'.
   4585  13c6					      set_stat	$ff
   4586  13c6		       e6 42		      inc	zpt
unittest.asm (4587): error: Unknown Mnemonic 'tst_z'.
   4587  13c6					      tst_z	rINC,fINC,$ff-fnz
   4588  13c8		       e8		      inx
   4589  13c9		       e0 02		      cpx	#2
   4590  13cb		       d0 02		      bne	tinc11
   4591  13cd		       a9 fe		      lda	#$fe
   4592  13cf		       85 42		      sta	zpt
   4593  13d1		       e0 05	   tinc11     cpx	#5
   4594  13d3		       d0 f1		      bne	tinc10
   4595  13d5		       ca		      dex
   4596  13d6		       e6 42		      inc	zpt
   4597  13d8				   tdec10
unittest.asm (4598): error: Unknown Mnemonic 'set_stat'.
   4598  13d8					      set_stat	$ff
   4599  13d8		       c6 42		      dec	zpt
unittest.asm (4600): error: Unknown Mnemonic 'tst_z'.
   4600  13d8					      tst_z	rINC,fINC,$ff-fnz
   4601  13da		       ca		      dex
   4602  13db		       30 42		      bmi	tdec11
   4603  13dd		       e0 01		      cpx	#1
   4604  13df		       d0 f7		      bne	tdec10
   4605  13e1		       a9 81		      lda	#$81
   4606  13e3		       85 42		      sta	zpt
   4607  13e5		       d0 f1		      bne	tdec10
   4608  13e7				   tdec11
unittest.asm (4609): error: Unknown Mnemonic 'next_test'.
   4609  13e7					      next_test
   4610  13e7
   4611  13e7							; absolute memory
   4612  13e7		       a2 00		      ldx	#0
   4613  13e9		       a9 7e		      lda	#$7e
   4614  13eb		       8d 03 02 	      sta	abst
   4615  13ee				   tinc2
unittest.asm (4616): error: Unknown Mnemonic 'set_stat'.
   4616  13ee					      set_stat	0
   4617  13ee		       ee 03 02 	      inc	abst
unittest.asm (4618): error: Unknown Mnemonic 'tst_abs'.
   4618  13ee					      tst_abs	rINC,fINC,0
   4619  13f1		       e8		      inx
   4620  13f2		       e0 02		      cpx	#2
   4621  13f4		       d0 02		      bne	tinc3
   4622  13f6		       a9 fe		      lda	#$fe
   4623  13f8		       8d 03 02 	      sta	abst
   4624  13fb		       e0 05	   tinc3      cpx	#5
   4625  13fd		       d0 ef		      bne	tinc2
   4626  13ff		       ca		      dex
   4627  1400		       ee 03 02 	      inc	abst
   4628  1403				   tdec2
unittest.asm (4629): error: Unknown Mnemonic 'set_stat'.
   4629  1403					      set_stat	0
   4630  1403		       ce 03 02 	      dec	abst
unittest.asm (4631): error: Unknown Mnemonic 'tst_abs'.
   4631  1403					      tst_abs	rINC,fINC,0
   4632  1406		       ca		      dex
   4633  1407		       30 03		      bmi	tdec3
   4634  1409		       e0 01		      cpx	#1
   4635  140b		       d0 f6		      bne	tdec2
   4636  140d		       a9 81		      lda	#$81
   4637  140f		       8d 03 02 	      sta	abst
   4638  1412		       d0 ef		      bne	tdec2
   4639  1414				   tdec3
   4640  1414		       a2 00		      ldx	#0
   4641  1416		       a9 7e		      lda	#$7e
   4642  1418		       8d 03 02 	      sta	abst
   4643  141b				   tinc12
unittest.asm (4644): error: Unknown Mnemonic 'set_stat'.
   4644  141b					      set_stat	$ff
   4645  141b		       ee 03 02 	      inc	abst
unittest.asm (4646): error: Unknown Mnemonic 'tst_abs'.
   4646  141b					      tst_abs	rINC,fINC,$ff-fnz
   4647  141e		       e8		      inx
   4648  141f		       e0 02		      cpx	#2
   4649  1421		       d0 02		      bne	tinc13
   4650  1423		       a9 fe		      lda	#$fe
   4651  1425		       8d 03 02 	      sta	abst
   4652  1428		       e0 05	   tinc13     cpx	#5
   4653  142a		       d0 ef		      bne	tinc12
   4654  142c		       ca		      dex
   4655  142d		       ee 03 02 	      inc	abst
   4656  1430				   tdec12
unittest.asm (4657): error: Unknown Mnemonic 'set_stat'.
   4657  1430					      set_stat	$ff
   4658  1430		       ce 03 02 	      dec	abst
unittest.asm (4659): error: Unknown Mnemonic 'tst_abs'.
   4659  1430					      tst_abs	rINC,fINC,$ff-fnz
   4660  1433		       ca		      dex
   4661  1434		       30 03		      bmi	tdec13
   4662  1436		       e0 01		      cpx	#1
   4663  1438		       d0 f6		      bne	tdec12
   4664  143a		       a9 81		      lda	#$81
   4665  143c		       8d 03 02 	      sta	abst
   4666  143f		       d0 ef		      bne	tdec12
   4667  1441				   tdec13
unittest.asm (4668): error: Unknown Mnemonic 'next_test'.
   4668  1441					      next_test
   4669  1441
   4670  1441							; zeropage indexed
   4671  1441		       a2 00		      ldx	#0
   4672  1443		       a9 7e		      lda	#$7e
   4673  1445		       95 42	   tinc4      sta	zpt,x
unittest.asm (4674): error: Unknown Mnemonic 'set_stat'.
   4674  1445					      set_stat	0
   4675  1447		       f6 42		      inc	zpt,x
unittest.asm (4676): error: Unknown Mnemonic 'tst_zx'.
   4676  1447					      tst_zx	rINC,fINC,0
   4677  1449		       b5 42		      lda	zpt,x
   4678  144b		       e8		      inx
   4679  144c		       e0 02		      cpx	#2
   4680  144e		       d0 02		      bne	tinc5
   4681  1450		       a9 fe		      lda	#$fe
   4682  1452		       e0 05	   tinc5      cpx	#5
   4683  1454		       d0 ef		      bne	tinc4
   4684  1456		       ca		      dex
   4685  1457		       a9 02		      lda	#2
   4686  1459		       95 42	   tdec4      sta	zpt,x
unittest.asm (4687): error: Unknown Mnemonic 'set_stat'.
   4687  1459					      set_stat	0
   4688  145b		       d6 42		      dec	zpt,x
unittest.asm (4689): error: Unknown Mnemonic 'tst_zx'.
   4689  145b					      tst_zx	rINC,fINC,0
   4690  145d		       b5 42		      lda	zpt,x
   4691  145f		       ca		      dex
   4692  1460		       30 42		      bmi	tdec5
   4693  1462		       e0 01		      cpx	#1
   4694  1464		       d0 f3		      bne	tdec4
   4695  1466		       a9 81		      lda	#$81
   4696  1468		       d0 ef		      bne	tdec4
   4697  146a				   tdec5
   4698  146a		       a2 00		      ldx	#0
   4699  146c		       a9 7e		      lda	#$7e
   4700  146e		       95 42	   tinc14     sta	zpt,x
unittest.asm (4701): error: Unknown Mnemonic 'set_stat'.
   4701  146e					      set_stat	$ff
   4702  1470		       f6 42		      inc	zpt,x
unittest.asm (4703): error: Unknown Mnemonic 'tst_zx'.
   4703  1470					      tst_zx	rINC,fINC,$ff-fnz
   4704  1472		       b5 42		      lda	zpt,x
   4705  1474		       e8		      inx
   4706  1475		       e0 02		      cpx	#2
   4707  1477		       d0 02		      bne	tinc15
   4708  1479		       a9 fe		      lda	#$fe
   4709  147b		       e0 05	   tinc15     cpx	#5
   4710  147d		       d0 ef		      bne	tinc14
   4711  147f		       ca		      dex
   4712  1480		       a9 02		      lda	#2
   4713  1482		       95 42	   tdec14     sta	zpt,x
unittest.asm (4714): error: Unknown Mnemonic 'set_stat'.
   4714  1482					      set_stat	$ff
   4715  1484		       d6 42		      dec	zpt,x
unittest.asm (4716): error: Unknown Mnemonic 'tst_zx'.
   4716  1484					      tst_zx	rINC,fINC,$ff-fnz
   4717  1486		       b5 42		      lda	zpt,x
   4718  1488		       ca		      dex
   4719  1489		       30 42		      bmi	tdec15
   4720  148b		       e0 01		      cpx	#1
   4721  148d		       d0 f3		      bne	tdec14
   4722  148f		       a9 81		      lda	#$81
   4723  1491		       d0 ef		      bne	tdec14
   4724  1493				   tdec15
unittest.asm (4725): error: Unknown Mnemonic 'next_test'.
   4725  1493					      next_test
   4726  1493
   4727  1493							; memory indexed
   4728  1493		       a2 00		      ldx	#0
   4729  1495		       a9 7e		      lda	#$7e
   4730  1497		       9d 03 02    tinc6      sta	abst,x
unittest.asm (4731): error: Unknown Mnemonic 'set_stat'.
   4731  1497					      set_stat	0
   4732  149a		       fe 03 02 	      inc	abst,x
unittest.asm (4733): error: Unknown Mnemonic 'tst_absx'.
   4733  149a					      tst_absx	rINC,fINC,0
   4734  149d		       bd 03 02 	      lda	abst,x
   4735  14a0		       e8		      inx
   4736  14a1		       e0 02		      cpx	#2
   4737  14a3		       d0 02		      bne	tinc7
   4738  14a5		       a9 fe		      lda	#$fe
   4739  14a7		       e0 05	   tinc7      cpx	#5
   4740  14a9		       d0 ec		      bne	tinc6
   4741  14ab		       ca		      dex
   4742  14ac		       a9 02		      lda	#2
   4743  14ae		       9d 03 02    tdec6      sta	abst,x
unittest.asm (4744): error: Unknown Mnemonic 'set_stat'.
   4744  14ae					      set_stat	0
   4745  14b1		       de 03 02 	      dec	abst,x
unittest.asm (4746): error: Unknown Mnemonic 'tst_absx'.
   4746  14b1					      tst_absx	rINC,fINC,0
   4747  14b4		       bd 03 02 	      lda	abst,x
   4748  14b7		       ca		      dex
   4749  14b8		       30 03		      bmi	tdec7
   4750  14ba		       e0 01		      cpx	#1
   4751  14bc		       d0 f0		      bne	tdec6
   4752  14be		       a9 81		      lda	#$81
   4753  14c0		       d0 ec		      bne	tdec6
   4754  14c2				   tdec7
   4755  14c2		       a2 00		      ldx	#0
   4756  14c4		       a9 7e		      lda	#$7e
   4757  14c6		       9d 03 02    tinc16     sta	abst,x
unittest.asm (4758): error: Unknown Mnemonic 'set_stat'.
   4758  14c6					      set_stat	$ff
   4759  14c9		       fe 03 02 	      inc	abst,x
unittest.asm (4760): error: Unknown Mnemonic 'tst_absx'.
   4760  14c9					      tst_absx	rINC,fINC,$ff-fnz
   4761  14cc		       bd 03 02 	      lda	abst,x
   4762  14cf		       e8		      inx
   4763  14d0		       e0 02		      cpx	#2
   4764  14d2		       d0 02		      bne	tinc17
   4765  14d4		       a9 fe		      lda	#$fe
   4766  14d6		       e0 05	   tinc17     cpx	#5
   4767  14d8		       d0 ec		      bne	tinc16
   4768  14da		       ca		      dex
   4769  14db		       a9 02		      lda	#2
   4770  14dd		       9d 03 02    tdec16     sta	abst,x
unittest.asm (4771): error: Unknown Mnemonic 'set_stat'.
   4771  14dd					      set_stat	$ff
   4772  14e0		       de 03 02 	      dec	abst,x
unittest.asm (4773): error: Unknown Mnemonic 'tst_absx'.
   4773  14e0					      tst_absx	rINC,fINC,$ff-fnz
   4774  14e3		       bd 03 02 	      lda	abst,x
   4775  14e6		       ca		      dex
   4776  14e7		       30 03		      bmi	tdec17
   4777  14e9		       e0 01		      cpx	#1
   4778  14eb		       d0 f0		      bne	tdec16
   4779  14ed		       a9 81		      lda	#$81
   4780  14ef		       d0 ec		      bne	tdec16
   4781  14f1				   tdec17
unittest.asm (4782): error: Unknown Mnemonic 'next_test'.
   4782  14f1					      next_test
   4783  14f1
   4784  14f1							; testing logical instructions - AND EOR ORA all addressing modes
   4785  14f1							; AND
   4786  14f1		       a2 03		      ldx	#3	;immediate
   4787  14f3		       b5 54	   tand       lda	zpAN,x
   4788  14f5		       8d 0a 02 	      sta	ex_andi+1	;set AND # operand
unittest.asm (4789): error: Unknown Mnemonic 'set_ax'.
   4789  14f5					      set_ax	absANa,0
   4790  14f8		       20 09 02 	      jsr	ex_andi	;execute AND # in RAM
unittest.asm (4791): error: Unknown Mnemonic 'tst_ax'.
   4791  14f8					      tst_ax	absrlo,absflo,0
   4792  14fb		       ca		      dex
   4793  14fc		       10 f5		      bpl	tand
   4794  14fe		       a2 03		      ldx	#3
   4795  1500		       b5 54	   tand1      lda	zpAN,x
   4796  1502		       8d 0a 02 	      sta	ex_andi+1	;set AND # operand
unittest.asm (4797): error: Unknown Mnemonic 'set_ax'.
   4797  1502					      set_ax	absANa,$ff
   4798  1505		       20 09 02 	      jsr	ex_andi	;execute AND # in RAM
unittest.asm (4799): error: Unknown Mnemonic 'tst_ax'.
   4799  1505					      tst_ax	absrlo,absflo,$ff-fnz
   4800  1508		       ca		      dex
   4801  1509		       10 f5		      bpl	tand1
   4802  150b
   4803  150b		       a2 03		      ldx	#3	;zp
   4804  150d		       b5 54	   tand2      lda	zpAN,x
   4805  150f		       85 42		      sta	zpt
unittest.asm (4806): error: Unknown Mnemonic 'set_ax'.
   4806  150f					      set_ax	absANa,0
   4807  1511		       25 42		      and	zpt
unittest.asm (4808): error: Unknown Mnemonic 'tst_ax'.
   4808  1511					      tst_ax	absrlo,absflo,0
   4809  1513		       ca		      dex
   4810  1514		       10 f7		      bpl	tand2
   4811  1516		       a2 03		      ldx	#3
   4812  1518		       b5 54	   tand3      lda	zpAN,x
   4813  151a		       85 42		      sta	zpt
unittest.asm (4814): error: Unknown Mnemonic 'set_ax'.
   4814  151a					      set_ax	absANa,$ff
   4815  151c		       25 42		      and	zpt
unittest.asm (4816): error: Unknown Mnemonic 'tst_ax'.
   4816  151c					      tst_ax	absrlo,absflo,$ff-fnz
   4817  151e		       ca		      dex
   4818  151f		       10 f7		      bpl	tand3
   4819  1521
   4820  1521		       a2 03		      ldx	#3	;abs
   4821  1523		       b5 54	   tand4      lda	zpAN,x
   4822  1525		       8d 03 02 	      sta	abst
unittest.asm (4823): error: Unknown Mnemonic 'set_ax'.
   4823  1525					      set_ax	absANa,0
   4824  1528		       2d 03 02 	      and	abst
unittest.asm (4825): error: Unknown Mnemonic 'tst_ax'.
   4825  1528					      tst_ax	absrlo,absflo,0
   4826  152b		       ca		      dex
   4827  152c		       10 f5		      bpl	tand4
   4828  152e		       a2 03		      ldx	#3
   4829  1530		       b5 54	   tand5      lda	zpAN,x
   4830  1532		       8d 03 02 	      sta	abst
unittest.asm (4831): error: Unknown Mnemonic 'set_ax'.
   4831  1532					      set_ax	absANa,$ff
   4832  1535		       2d 03 02 	      and	abst
unittest.asm (4833): error: Unknown Mnemonic 'tst_ax'.
   4833  1535					      tst_ax	absrlo,absflo,$ff-fnz
   4834  1538		       ca		      dex
   4835  1539		       10 03		      bpl	tand6
   4836  153b
   4837  153b		       a2 03		      ldx	#3	;zp,x
   4838  153d				   tand6
unittest.asm (4839): error: Unknown Mnemonic 'set_ax'.
   4839  153d					      set_ax	absANa,0
   4840  153d		       35 54		      and	zpAN,x
unittest.asm (4841): error: Unknown Mnemonic 'tst_ax'.
   4841  153d					      tst_ax	absrlo,absflo,0
   4842  153f		       ca		      dex
   4843  1540		       10 fb		      bpl	tand6
   4844  1542		       a2 03		      ldx	#3
   4845  1544				   tand7
unittest.asm (4846): error: Unknown Mnemonic 'set_ax'.
   4846  1544					      set_ax	absANa,$ff
   4847  1544		       35 54		      and	zpAN,x
unittest.asm (4848): error: Unknown Mnemonic 'tst_ax'.
   4848  1544					      tst_ax	absrlo,absflo,$ff-fnz
   4849  1546		       ca		      dex
   4850  1547		       10 fb		      bpl	tand7
   4851  1549
   4852  1549		       a2 03		      ldx	#3	;abs,x
   4853  154b				   tand8
unittest.asm (4854): error: Unknown Mnemonic 'set_ax'.
   4854  154b					      set_ax	absANa,0
   4855  154b		       3d 5f 02 	      and	absAN,x
unittest.asm (4856): error: Unknown Mnemonic 'tst_ax'.
   4856  154b					      tst_ax	absrlo,absflo,0
   4857  154e		       ca		      dex
   4858  154f		       10 fa		      bpl	tand8
   4859  1551		       a2 03		      ldx	#3
   4860  1553				   tand9
unittest.asm (4861): error: Unknown Mnemonic 'set_ax'.
   4861  1553					      set_ax	absANa,$ff
   4862  1553		       3d 5f 02 	      and	absAN,x
unittest.asm (4863): error: Unknown Mnemonic 'tst_ax'.
   4863  1553					      tst_ax	absrlo,absflo,$ff-fnz
   4864  1556		       ca		      dex
   4865  1557		       10 fa		      bpl	tand9
   4866  1559
   4867  1559		       a0 03		      ldy	#3	;abs,y
   4868  155b				   tand10
unittest.asm (4869): error: Unknown Mnemonic 'set_ay'.
   4869  155b					      set_ay	absANa,0
   4870  155b		       39 5f 02 	      and	absAN,y
unittest.asm (4871): error: Unknown Mnemonic 'tst_ay'.
   4871  155b					      tst_ay	absrlo,absflo,0
   4872  155e		       88		      dey
   4873  155f		       10 fa		      bpl	tand10
   4874  1561		       a0 03		      ldy	#3
   4875  1563				   tand11
unittest.asm (4876): error: Unknown Mnemonic 'set_ay'.
   4876  1563					      set_ay	absANa,$ff
   4877  1563		       39 5f 02 	      and	absAN,y
unittest.asm (4878): error: Unknown Mnemonic 'tst_ay'.
   4878  1563					      tst_ay	absrlo,absflo,$ff-fnz
   4879  1566		       88		      dey
   4880  1567		       10 fa		      bpl	tand11
   4881  1569
   4882  1569		       a2 06		      ldx	#6	;(zp,x)
   4883  156b		       a0 03		      ldy	#3
   4884  156d				   tand12
unittest.asm (4885): error: Unknown Mnemonic 'set_ay'.
   4885  156d					      set_ay	absANa,0
   4886  156d		       21 72		      and	(indAN,x)
unittest.asm (4887): error: Unknown Mnemonic 'tst_ay'.
   4887  156d					      tst_ay	absrlo,absflo,0
   4888  156f		       ca		      dex
   4889  1570		       ca		      dex
   4890  1571		       88		      dey
   4891  1572		       10 f9		      bpl	tand12
   4892  1574		       a2 06		      ldx	#6
   4893  1576		       a0 03		      ldy	#3
   4894  1578				   tand13
unittest.asm (4895): error: Unknown Mnemonic 'set_ay'.
   4895  1578					      set_ay	absANa,$ff
   4896  1578		       21 72		      and	(indAN,x)
unittest.asm (4897): error: Unknown Mnemonic 'tst_ay'.
   4897  1578					      tst_ay	absrlo,absflo,$ff-fnz
   4898  157a		       ca		      dex
   4899  157b		       ca		      dex
   4900  157c		       88		      dey
   4901  157d		       10 f9		      bpl	tand13
   4902  157f
   4903  157f		       a0 03		      ldy	#3	;(zp),y
   4904  1581				   tand14
unittest.asm (4905): error: Unknown Mnemonic 'set_ay'.
   4905  1581					      set_ay	absANa,0
   4906  1581		       31 72		      and	(indAN),y
unittest.asm (4907): error: Unknown Mnemonic 'tst_ay'.
   4907  1581					      tst_ay	absrlo,absflo,0
   4908  1583		       88		      dey
   4909  1584		       10 fb		      bpl	tand14
   4910  1586		       a0 03		      ldy	#3
   4911  1588				   tand15
unittest.asm (4912): error: Unknown Mnemonic 'set_ay'.
   4912  1588					      set_ay	absANa,$ff
   4913  1588		       31 72		      and	(indAN),y
unittest.asm (4914): error: Unknown Mnemonic 'tst_ay'.
   4914  1588					      tst_ay	absrlo,absflo,$ff-fnz
   4915  158a		       88		      dey
   4916  158b		       10 fb		      bpl	tand15
unittest.asm (4917): error: Unknown Mnemonic 'next_test'.
   4917  158b					      next_test
   4918  158d
   4919  158d							; EOR
   4920  158d		       a2 03		      ldx	#3	;immediate - self modifying code
   4921  158f		       b5 58	   teor       lda	zpEO,x
   4922  1591		       8d 0d 02 	      sta	ex_eori+1	;set EOR # operand
unittest.asm (4923): error: Unknown Mnemonic 'set_ax'.
   4923  1591					      set_ax	absEOa,0
   4924  1594		       20 0c 02 	      jsr	ex_eori	;execute EOR # in RAM
unittest.asm (4925): error: Unknown Mnemonic 'tst_ax'.
   4925  1594					      tst_ax	absrlo,absflo,0
   4926  1597		       ca		      dex
   4927  1598		       10 f5		      bpl	teor
   4928  159a		       a2 03		      ldx	#3
   4929  159c		       b5 58	   teor1      lda	zpEO,x
   4930  159e		       8d 0d 02 	      sta	ex_eori+1	;set EOR # operand
unittest.asm (4931): error: Unknown Mnemonic 'set_ax'.
   4931  159e					      set_ax	absEOa,$ff
   4932  15a1		       20 0c 02 	      jsr	ex_eori	;execute EOR # in RAM
unittest.asm (4933): error: Unknown Mnemonic 'tst_ax'.
   4933  15a1					      tst_ax	absrlo,absflo,$ff-fnz
   4934  15a4		       ca		      dex
   4935  15a5		       10 f5		      bpl	teor1
   4936  15a7
   4937  15a7		       a2 03		      ldx	#3	;zp
   4938  15a9		       b5 58	   teor2      lda	zpEO,x
   4939  15ab		       85 42		      sta	zpt
unittest.asm (4940): error: Unknown Mnemonic 'set_ax'.
   4940  15ab					      set_ax	absEOa,0
   4941  15ad		       45 42		      eor	zpt
unittest.asm (4942): error: Unknown Mnemonic 'tst_ax'.
   4942  15ad					      tst_ax	absrlo,absflo,0
   4943  15af		       ca		      dex
   4944  15b0		       10 f7		      bpl	teor2
   4945  15b2		       a2 03		      ldx	#3
   4946  15b4		       b5 58	   teor3      lda	zpEO,x
   4947  15b6		       85 42		      sta	zpt
unittest.asm (4948): error: Unknown Mnemonic 'set_ax'.
   4948  15b6					      set_ax	absEOa,$ff
   4949  15b8		       45 42		      eor	zpt
unittest.asm (4950): error: Unknown Mnemonic 'tst_ax'.
   4950  15b8					      tst_ax	absrlo,absflo,$ff-fnz
   4951  15ba		       ca		      dex
   4952  15bb		       10 f7		      bpl	teor3
   4953  15bd
   4954  15bd		       a2 03		      ldx	#3	;abs
   4955  15bf		       b5 58	   teor4      lda	zpEO,x
   4956  15c1		       8d 03 02 	      sta	abst
unittest.asm (4957): error: Unknown Mnemonic 'set_ax'.
   4957  15c1					      set_ax	absEOa,0
   4958  15c4		       4d 03 02 	      eor	abst
unittest.asm (4959): error: Unknown Mnemonic 'tst_ax'.
   4959  15c4					      tst_ax	absrlo,absflo,0
   4960  15c7		       ca		      dex
   4961  15c8		       10 f5		      bpl	teor4
   4962  15ca		       a2 03		      ldx	#3
   4963  15cc		       b5 58	   teor5      lda	zpEO,x
   4964  15ce		       8d 03 02 	      sta	abst
unittest.asm (4965): error: Unknown Mnemonic 'set_ax'.
   4965  15ce					      set_ax	absEOa,$ff
   4966  15d1		       4d 03 02 	      eor	abst
unittest.asm (4967): error: Unknown Mnemonic 'tst_ax'.
   4967  15d1					      tst_ax	absrlo,absflo,$ff-fnz
   4968  15d4		       ca		      dex
   4969  15d5		       10 03		      bpl	teor6
   4970  15d7
   4971  15d7		       a2 03		      ldx	#3	;zp,x
   4972  15d9				   teor6
unittest.asm (4973): error: Unknown Mnemonic 'set_ax'.
   4973  15d9					      set_ax	absEOa,0
   4974  15d9		       55 58		      eor	zpEO,x
unittest.asm (4975): error: Unknown Mnemonic 'tst_ax'.
   4975  15d9					      tst_ax	absrlo,absflo,0
   4976  15db		       ca		      dex
   4977  15dc		       10 fb		      bpl	teor6
   4978  15de		       a2 03		      ldx	#3
   4979  15e0				   teor7
unittest.asm (4980): error: Unknown Mnemonic 'set_ax'.
   4980  15e0					      set_ax	absEOa,$ff
   4981  15e0		       55 58		      eor	zpEO,x
unittest.asm (4982): error: Unknown Mnemonic 'tst_ax'.
   4982  15e0					      tst_ax	absrlo,absflo,$ff-fnz
   4983  15e2		       ca		      dex
   4984  15e3		       10 fb		      bpl	teor7
   4985  15e5
   4986  15e5		       a2 03		      ldx	#3	;abs,x
   4987  15e7				   teor8
unittest.asm (4988): error: Unknown Mnemonic 'set_ax'.
   4988  15e7					      set_ax	absEOa,0
   4989  15e7		       5d 63 02 	      eor	absEO,x
unittest.asm (4990): error: Unknown Mnemonic 'tst_ax'.
   4990  15e7					      tst_ax	absrlo,absflo,0
   4991  15ea		       ca		      dex
   4992  15eb		       10 fa		      bpl	teor8
   4993  15ed		       a2 03		      ldx	#3
   4994  15ef				   teor9
unittest.asm (4995): error: Unknown Mnemonic 'set_ax'.
   4995  15ef					      set_ax	absEOa,$ff
   4996  15ef		       5d 63 02 	      eor	absEO,x
unittest.asm (4997): error: Unknown Mnemonic 'tst_ax'.
   4997  15ef					      tst_ax	absrlo,absflo,$ff-fnz
   4998  15f2		       ca		      dex
   4999  15f3		       10 fa		      bpl	teor9
   5000  15f5
   5001  15f5		       a0 03		      ldy	#3	;abs,y
   5002  15f7				   teor10
unittest.asm (5003): error: Unknown Mnemonic 'set_ay'.
   5003  15f7					      set_ay	absEOa,0
   5004  15f7		       59 63 02 	      eor	absEO,y
unittest.asm (5005): error: Unknown Mnemonic 'tst_ay'.
   5005  15f7					      tst_ay	absrlo,absflo,0
   5006  15fa		       88		      dey
   5007  15fb		       10 fa		      bpl	teor10
   5008  15fd		       a0 03		      ldy	#3
   5009  15ff				   teor11
unittest.asm (5010): error: Unknown Mnemonic 'set_ay'.
   5010  15ff					      set_ay	absEOa,$ff
   5011  15ff		       59 63 02 	      eor	absEO,y
unittest.asm (5012): error: Unknown Mnemonic 'tst_ay'.
   5012  15ff					      tst_ay	absrlo,absflo,$ff-fnz
   5013  1602		       88		      dey
   5014  1603		       10 fa		      bpl	teor11
   5015  1605
   5016  1605		       a2 06		      ldx	#6	;(zp,x)
   5017  1607		       a0 03		      ldy	#3
   5018  1609				   teor12
unittest.asm (5019): error: Unknown Mnemonic 'set_ay'.
   5019  1609					      set_ay	absEOa,0
   5020  1609		       41 7a		      eor	(indEO,x)
unittest.asm (5021): error: Unknown Mnemonic 'tst_ay'.
   5021  1609					      tst_ay	absrlo,absflo,0
   5022  160b		       ca		      dex
   5023  160c		       ca		      dex
   5024  160d		       88		      dey
   5025  160e		       10 f9		      bpl	teor12
   5026  1610		       a2 06		      ldx	#6
   5027  1612		       a0 03		      ldy	#3
   5028  1614				   teor13
unittest.asm (5029): error: Unknown Mnemonic 'set_ay'.
   5029  1614					      set_ay	absEOa,$ff
   5030  1614		       41 7a		      eor	(indEO,x)
unittest.asm (5031): error: Unknown Mnemonic 'tst_ay'.
   5031  1614					      tst_ay	absrlo,absflo,$ff-fnz
   5032  1616		       ca		      dex
   5033  1617		       ca		      dex
   5034  1618		       88		      dey
   5035  1619		       10 f9		      bpl	teor13
   5036  161b
   5037  161b		       a0 03		      ldy	#3	;(zp),y
   5038  161d				   teor14
unittest.asm (5039): error: Unknown Mnemonic 'set_ay'.
   5039  161d					      set_ay	absEOa,0
   5040  161d		       51 7a		      eor	(indEO),y
unittest.asm (5041): error: Unknown Mnemonic 'tst_ay'.
   5041  161d					      tst_ay	absrlo,absflo,0
   5042  161f		       88		      dey
   5043  1620		       10 fb		      bpl	teor14
   5044  1622		       a0 03		      ldy	#3
   5045  1624				   teor15
unittest.asm (5046): error: Unknown Mnemonic 'set_ay'.
   5046  1624					      set_ay	absEOa,$ff
   5047  1624		       51 7a		      eor	(indEO),y
unittest.asm (5048): error: Unknown Mnemonic 'tst_ay'.
   5048  1624					      tst_ay	absrlo,absflo,$ff-fnz
   5049  1626		       88		      dey
   5050  1627		       10 fb		      bpl	teor15
unittest.asm (5051): error: Unknown Mnemonic 'next_test'.
   5051  1627					      next_test
   5052  1629
   5053  1629							; OR
   5054  1629		       a2 03		      ldx	#3	;immediate - self modifying code
   5055  162b		       b5 50	   tora       lda	zpOR,x
   5056  162d		       8d 10 02 	      sta	ex_orai+1	;set ORA # operand
unittest.asm (5057): error: Unknown Mnemonic 'set_ax'.
   5057  162d					      set_ax	absORa,0
   5058  1630		       20 0f 02 	      jsr	ex_orai	;execute ORA # in RAM
unittest.asm (5059): error: Unknown Mnemonic 'tst_ax'.
   5059  1630					      tst_ax	absrlo,absflo,0
   5060  1633		       ca		      dex
   5061  1634		       10 f5		      bpl	tora
   5062  1636		       a2 03		      ldx	#3
   5063  1638		       b5 50	   tora1      lda	zpOR,x
   5064  163a		       8d 10 02 	      sta	ex_orai+1	;set ORA # operand
unittest.asm (5065): error: Unknown Mnemonic 'set_ax'.
   5065  163a					      set_ax	absORa,$ff
   5066  163d		       20 0f 02 	      jsr	ex_orai	;execute ORA # in RAM
unittest.asm (5067): error: Unknown Mnemonic 'tst_ax'.
   5067  163d					      tst_ax	absrlo,absflo,$ff-fnz
   5068  1640		       ca		      dex
   5069  1641		       10 f5		      bpl	tora1
   5070  1643
   5071  1643		       a2 03		      ldx	#3	;zp
   5072  1645		       b5 50	   tora2      lda	zpOR,x
   5073  1647		       85 42		      sta	zpt
unittest.asm (5074): error: Unknown Mnemonic 'set_ax'.
   5074  1647					      set_ax	absORa,0
   5075  1649		       05 42		      ora	zpt
unittest.asm (5076): error: Unknown Mnemonic 'tst_ax'.
   5076  1649					      tst_ax	absrlo,absflo,0
   5077  164b		       ca		      dex
   5078  164c		       10 f7		      bpl	tora2
   5079  164e		       a2 03		      ldx	#3
   5080  1650		       b5 50	   tora3      lda	zpOR,x
   5081  1652		       85 42		      sta	zpt
unittest.asm (5082): error: Unknown Mnemonic 'set_ax'.
   5082  1652					      set_ax	absORa,$ff
   5083  1654		       05 42		      ora	zpt
unittest.asm (5084): error: Unknown Mnemonic 'tst_ax'.
   5084  1654					      tst_ax	absrlo,absflo,$ff-fnz
   5085  1656		       ca		      dex
   5086  1657		       10 f7		      bpl	tora3
   5087  1659
   5088  1659		       a2 03		      ldx	#3	;abs
   5089  165b		       b5 50	   tora4      lda	zpOR,x
   5090  165d		       8d 03 02 	      sta	abst
unittest.asm (5091): error: Unknown Mnemonic 'set_ax'.
   5091  165d					      set_ax	absORa,0
   5092  1660		       0d 03 02 	      ora	abst
unittest.asm (5093): error: Unknown Mnemonic 'tst_ax'.
   5093  1660					      tst_ax	absrlo,absflo,0
   5094  1663		       ca		      dex
   5095  1664		       10 f5		      bpl	tora4
   5096  1666		       a2 03		      ldx	#3
   5097  1668		       b5 50	   tora5      lda	zpOR,x
   5098  166a		       8d 03 02 	      sta	abst
unittest.asm (5099): error: Unknown Mnemonic 'set_ax'.
   5099  166a					      set_ax	absORa,$ff
   5100  166d		       0d 03 02 	      ora	abst
unittest.asm (5101): error: Unknown Mnemonic 'tst_ax'.
   5101  166d					      tst_ax	absrlo,absflo,$ff-fnz
   5102  1670		       ca		      dex
   5103  1671		       10 03		      bpl	tora6
   5104  1673
   5105  1673		       a2 03		      ldx	#3	;zp,x
   5106  1675				   tora6
unittest.asm (5107): error: Unknown Mnemonic 'set_ax'.
   5107  1675					      set_ax	absORa,0
   5108  1675		       15 50		      ora	zpOR,x
unittest.asm (5109): error: Unknown Mnemonic 'tst_ax'.
   5109  1675					      tst_ax	absrlo,absflo,0
   5110  1677		       ca		      dex
   5111  1678		       10 fb		      bpl	tora6
   5112  167a		       a2 03		      ldx	#3
   5113  167c				   tora7
unittest.asm (5114): error: Unknown Mnemonic 'set_ax'.
   5114  167c					      set_ax	absORa,$ff
   5115  167c		       15 50		      ora	zpOR,x
unittest.asm (5116): error: Unknown Mnemonic 'tst_ax'.
   5116  167c					      tst_ax	absrlo,absflo,$ff-fnz
   5117  167e		       ca		      dex
   5118  167f		       10 fb		      bpl	tora7
   5119  1681
   5120  1681		       a2 03		      ldx	#3	;abs,x
   5121  1683				   tora8
unittest.asm (5122): error: Unknown Mnemonic 'set_ax'.
   5122  1683					      set_ax	absORa,0
   5123  1683		       1d 5b 02 	      ora	absOR,x
unittest.asm (5124): error: Unknown Mnemonic 'tst_ax'.
   5124  1683					      tst_ax	absrlo,absflo,0
   5125  1686		       ca		      dex
   5126  1687		       10 fa		      bpl	tora8
   5127  1689		       a2 03		      ldx	#3
   5128  168b				   tora9
unittest.asm (5129): error: Unknown Mnemonic 'set_ax'.
   5129  168b					      set_ax	absORa,$ff
   5130  168b		       1d 5b 02 	      ora	absOR,x
unittest.asm (5131): error: Unknown Mnemonic 'tst_ax'.
   5131  168b					      tst_ax	absrlo,absflo,$ff-fnz
   5132  168e		       ca		      dex
   5133  168f		       10 fa		      bpl	tora9
   5134  1691
   5135  1691		       a0 03		      ldy	#3	;abs,y
   5136  1693				   tora10
unittest.asm (5137): error: Unknown Mnemonic 'set_ay'.
   5137  1693					      set_ay	absORa,0
   5138  1693		       19 5b 02 	      ora	absOR,y
unittest.asm (5139): error: Unknown Mnemonic 'tst_ay'.
   5139  1693					      tst_ay	absrlo,absflo,0
   5140  1696		       88		      dey
   5141  1697		       10 fa		      bpl	tora10
   5142  1699		       a0 03		      ldy	#3
   5143  169b				   tora11
unittest.asm (5144): error: Unknown Mnemonic 'set_ay'.
   5144  169b					      set_ay	absORa,$ff
   5145  169b		       19 5b 02 	      ora	absOR,y
unittest.asm (5146): error: Unknown Mnemonic 'tst_ay'.
   5146  169b					      tst_ay	absrlo,absflo,$ff-fnz
   5147  169e		       88		      dey
   5148  169f		       10 fa		      bpl	tora11
   5149  16a1
   5150  16a1		       a2 06		      ldx	#6	;(zp,x)
   5151  16a3		       a0 03		      ldy	#3
   5152  16a5				   tora12
unittest.asm (5153): error: Unknown Mnemonic 'set_ay'.
   5153  16a5					      set_ay	absORa,0
   5154  16a5		       01 82		      ora	(indOR,x)
unittest.asm (5155): error: Unknown Mnemonic 'tst_ay'.
   5155  16a5					      tst_ay	absrlo,absflo,0
   5156  16a7		       ca		      dex
   5157  16a8		       ca		      dex
   5158  16a9		       88		      dey
   5159  16aa		       10 f9		      bpl	tora12
   5160  16ac		       a2 06		      ldx	#6
   5161  16ae		       a0 03		      ldy	#3
   5162  16b0				   tora13
unittest.asm (5163): error: Unknown Mnemonic 'set_ay'.
   5163  16b0					      set_ay	absORa,$ff
   5164  16b0		       01 82		      ora	(indOR,x)
unittest.asm (5165): error: Unknown Mnemonic 'tst_ay'.
   5165  16b0					      tst_ay	absrlo,absflo,$ff-fnz
   5166  16b2		       ca		      dex
   5167  16b3		       ca		      dex
   5168  16b4		       88		      dey
   5169  16b5		       10 f9		      bpl	tora13
   5170  16b7
   5171  16b7		       a0 03		      ldy	#3	;(zp),y
   5172  16b9				   tora14
unittest.asm (5173): error: Unknown Mnemonic 'set_ay'.
   5173  16b9					      set_ay	absORa,0
   5174  16b9		       11 82		      ora	(indOR),y
unittest.asm (5175): error: Unknown Mnemonic 'tst_ay'.
   5175  16b9					      tst_ay	absrlo,absflo,0
   5176  16bb		       88		      dey
   5177  16bc		       10 fb		      bpl	tora14
   5178  16be		       a0 03		      ldy	#3
   5179  16c0				   tora15
unittest.asm (5180): error: Unknown Mnemonic 'set_ay'.
   5180  16c0					      set_ay	absORa,$ff
   5181  16c0		       11 82		      ora	(indOR),y
unittest.asm (5182): error: Unknown Mnemonic 'tst_ay'.
   5182  16c0					      tst_ay	absrlo,absflo,$ff-fnz
   5183  16c2		       88		      dey
   5184  16c3		       10 fb		      bpl	tora15
   5185  16c5				  -	      if	I_flag = 3
   5186  16c5				  -	      cli
   5187  16c5					      endif
unittest.asm (5188): error: Unknown Mnemonic 'next_test'.
   5188  16c5					      next_test
   5189  16c5
   5190  16c5							; full binary add/subtract test
   5191  16c5							; iterates through all combinations of operands and carry input
   5192  16c5							; uses increments/decrements to predict result & result flags
   5193  16c5		       d8		      cld
   5194  16c6		       a2 44		      ldx	#ad2	;for indexed test
   5195  16c8		       a0 ff		      ldy	#$ff	;max range
   5196  16ca		       a9 00		      lda	#0	;start with adding zeroes & no carry
   5197  16cc		       85 42		      sta	adfc	;carry in - for diag
   5198  16ce		       85 43		      sta	ad1	;operand 1 - accumulator
   5199  16d0		       85 44		      sta	ad2	;operand 2 - memory or immediate
   5200  16d2		       8d 03 02 	      sta	ada2	;non zp
   5201  16d5		       85 45		      sta	adrl	;expected result bits 0-7
   5202  16d7		       85 46		      sta	adrh	;expected result bit 8 (carry out)
   5203  16d9		       a9 ff		      lda	#$ff	;complemented operand 2 for subtract
   5204  16db		       85 48		      sta	sb2
   5205  16dd		       8d 04 02 	      sta	sba2	;non zp
   5206  16e0		       a9 02		      lda	#2	;expected Z-flag
   5207  16e2		       85 47		      sta	adrf
   5208  16e4		       18	   tadd       clc		;test with carry clear
   5209  16e5		       20 00 00 	      jsr	chkadd
   5210  16e8		       e6 42		      inc	adfc	;now with carry
   5211  16ea		       e6 45		      inc	adrl	;result +1
   5212  16ec		       08		      php		;save N & Z from low result
   5213  16ed		       08		      php
   5214  16ee		       68		      pla		;accu holds expected flags
   5215  16ef		       29 82		      and	#$82	;mask N & Z
   5216  16f1		       28		      plp
   5217  16f2		       d0 82		      bne	tadd1
   5218  16f4		       e6 46		      inc	adrh	;result bit 8 - carry
   5219  16f6		       05 46	   tadd1      ora	adrh	;merge C to expected flags
   5220  16f8		       85 47		      sta	adrf	;save expected flags except overflow
   5221  16fa		       38		      sec		;test with carry set
   5222  16fb		       20 00 00 	      jsr	chkadd
   5223  16fe		       c6 42		      dec	adfc	;same for operand +1 but no carry
   5224  1700		       e6 43		      inc	ad1
   5225  1702		       d0 e0		      bne	tadd	;iterate op1
   5226  1704		       a9 00		      lda	#0	;preset result to op2 when op1 = 0
   5227  1706		       85 46		      sta	adrh
   5228  1708		       ee 03 02 	      inc	ada2
   5229  170b		       e6 44		      inc	ad2
   5230  170d		       08		      php		;save NZ as operand 2 becomes the new result
   5231  170e		       68		      pla
   5232  170f		       29 82		      and	#$82	;mask N00000Z0
   5233  1711		       85 47		      sta	adrf	;no need to check carry as we are adding to 0
   5234  1713		       c6 48		      dec	sb2	;complement subtract operand 2
   5235  1715		       ce 04 02 	      dec	sba2
   5236  1718		       a5 44		      lda	ad2
   5237  171a		       85 45		      sta	adrl
   5238  171c		       d0 c6		      bne	tadd	;iterate op2
   5239  171e					      if	disable_decimal < 1
unittest.asm (5240): error: Unknown Mnemonic 'next_test'.
   5240  171e					      next_test
   5241  171e
   5242  171e							; decimal add/subtract test
   5243  171e							; *** WARNING - tests documented behavior only! ***
   5244  171e							;   only valid BCD operands are tested, N V Z flags are ignored
   5245  171e							; iterates through all valid combinations of operands and carry input
   5246  171e							; uses increments/decrements to predict result & carry flag
   5247  171e		       f8		      sed
   5248  171f		       a2 44		      ldx	#ad2	;for indexed test
   5249  1721		       a0 ff		      ldy	#$ff	;max range
   5250  1723		       a9 99		      lda	#$99	;start with adding 99 to 99 with carry
   5251  1725		       85 43		      sta	ad1	;operand 1 - accumulator
   5252  1727		       85 44		      sta	ad2	;operand 2 - memory or immediate
   5253  1729		       8d 03 02 	      sta	ada2	;non zp
   5254  172c		       85 45		      sta	adrl	;expected result bits 0-7
   5255  172e		       a9 01		      lda	#1	;set carry in & out
   5256  1730		       85 42		      sta	adfc	;carry in - for diag
   5257  1732		       85 46		      sta	adrh	;expected result bit 8 (carry out)
   5258  1734		       a9 00		      lda	#0	;complemented operand 2 for subtract
   5259  1736		       85 48		      sta	sb2
   5260  1738		       8d 04 02 	      sta	sba2	;non zp
   5261  173b		       38	   tdad       sec		;test with carry set
   5262  173c		       20 00 00 	      jsr	chkdad
   5263  173f		       c6 42		      dec	adfc	;now with carry clear
   5264  1741		       a5 45		      lda	adrl	;decimal adjust result
   5265  1743		       d0 45		      bne	tdad1	;skip clear carry & preset result 99 (9A-1)
   5266  1745		       c6 46		      dec	adrh
   5267  1747		       a9 99		      lda	#$99
   5268  1749		       85 45		      sta	adrl
   5269  174b		       d0 45		      bne	tdad3
   5270  174d		       29 0f	   tdad1      and	#$f	;lower nibble mask
   5271  174f		       d0 0f		      bne	tdad2	;no decimal adjust needed
   5272  1751		       c6 45		      dec	adrl	;decimal adjust (?0-6)
   5273  1753		       c6 45		      dec	adrl
   5274  1755		       c6 45		      dec	adrl
   5275  1757		       c6 45		      dec	adrl
   5276  1759		       c6 45		      dec	adrl
   5277  175b		       c6 45		      dec	adrl
   5278  175d		       c6 45	   tdad2      dec	adrl	;result -1
   5279  175f		       18	   tdad3      clc		;test with carry clear
   5280  1760		       20 00 00 	      jsr	chkdad
   5281  1763		       e6 42		      inc	adfc	;same for operand -1 but with carry
   5282  1765		       a5 43		      lda	ad1	;decimal adjust operand 1
   5283  1767		       f0 43		      beq	tdad5	;iterate operand 2
   5284  1769		       29 0f		      and	#$f	;lower nibble mask
   5285  176b		       d0 0f		      bne	tdad4	;skip decimal adjust
   5286  176d		       c6 43		      dec	ad1	;decimal adjust (?0-6)
   5287  176f		       c6 43		      dec	ad1
   5288  1771		       c6 43		      dec	ad1
   5289  1773		       c6 43		      dec	ad1
   5290  1775		       c6 43		      dec	ad1
   5291  1777		       c6 43		      dec	ad1
   5292  1779		       c6 43	   tdad4      dec	ad1	;operand 1 -1
   5293  177b		       4c 3b 17 	      jmp	tdad	;iterate op1
   5294  177e
   5295  177e		       a9 99	   tdad5      lda	#$99	;precharge op1 max
   5296  1780		       85 43		      sta	ad1
   5297  1782		       a5 44		      lda	ad2	;decimal adjust operand 2
   5298  1784		       f0 44		      beq	tdad7	;end of iteration
   5299  1786		       29 0f		      and	#$f	;lower nibble mask
   5300  1788		       d0 0f		      bne	tdad6	;skip decimal adjust
   5301  178a		       c6 44		      dec	ad2	;decimal adjust (?0-6)
   5302  178c		       c6 44		      dec	ad2
   5303  178e		       c6 44		      dec	ad2
   5304  1790		       c6 44		      dec	ad2
   5305  1792		       c6 44		      dec	ad2
   5306  1794		       c6 44		      dec	ad2
   5307  1796		       e6 48		      inc	sb2	;complemented decimal adjust for subtract (?9+6)
   5308  1798		       e6 48		      inc	sb2
   5309  179a		       e6 48		      inc	sb2
   5310  179c		       e6 48		      inc	sb2
   5311  179e		       e6 48		      inc	sb2
   5312  17a0		       e6 48		      inc	sb2
   5313  17a2		       c6 44	   tdad6      dec	ad2	;operand 2 -1
   5314  17a4		       e6 48		      inc	sb2	;complemented operand for subtract
   5315  17a6		       a5 48		      lda	sb2
   5316  17a8		       8d 04 02 	      sta	sba2	;copy as non zp operand
   5317  17ab		       a5 44		      lda	ad2
   5318  17ad		       8d 03 02 	      sta	ada2	;copy as non zp operand
   5319  17b0		       85 45		      sta	adrl	;new result since op1+carry=00+carry +op2=op2
   5320  17b2		       e6 46		      inc	adrh	;result carry
   5321  17b4		       d0 85		      bne	tdad	;iterate op2
   5322  17b6				   tdad7
unittest.asm (5323): error: Unknown Mnemonic 'next_test'.
   5323  17b6					      next_test
   5324  17b6
   5325  17b6							; decimal/binary switch test
   5326  17b6							; tests CLD, SED, PLP, RTI to properly switch between decimal & binary opcode
   5327  17b6							;   tables
   5328  17b6		       18		      clc
   5329  17b7		       d8		      cld
   5330  17b8		       08		      php
   5331  17b9		       a9 55		      lda	#$55
   5332  17bb		       69 55		      adc	#$55
   5333  17bd		       c9 aa		      cmp	#$aa
unittest.asm (5334): error: Unknown Mnemonic 'trap_ne'.
   5334  17bd					      trap_ne		;expected binary result after cld
   5335  17bf		       18		      clc
   5336  17c0		       f8		      sed
   5337  17c1		       08		      php
   5338  17c2		       a9 55		      lda	#$55
   5339  17c4		       69 55		      adc	#$55
   5340  17c6		       c9 10		      cmp	#$10
unittest.asm (5341): error: Unknown Mnemonic 'trap_ne'.
   5341  17c6					      trap_ne		;expected decimal result after sed
   5342  17c8		       d8		      cld
   5343  17c9		       28		      plp
   5344  17ca		       a9 55		      lda	#$55
   5345  17cc		       69 55		      adc	#$55
   5346  17ce		       c9 10		      cmp	#$10
unittest.asm (5347): error: Unknown Mnemonic 'trap_ne'.
   5347  17ce					      trap_ne		;expected decimal result after plp D=1
   5348  17d0		       28		      plp
   5349  17d1		       a9 55		      lda	#$55
   5350  17d3		       69 55		      adc	#$55
   5351  17d5		       c9 aa		      cmp	#$aa
unittest.asm (5352): error: Unknown Mnemonic 'trap_ne'.
   5352  17d5					      trap_ne		;expected binary result after plp D=0
   5353  17d7		       18		      clc
unittest.asm (5354): error: Syntax Error '#hi bin_rti_ret'.
   5354  17d8		       a9 00		      lda	#hi bin_rti_ret	;emulated interrupt for rti
   5355  17da		       48		      pha
unittest.asm (5356): error: Syntax Error '#lo bin_rti_ret'.
   5356  17db		       a9 00		      lda	#lo bin_rti_ret
   5357  17dd		       48		      pha
   5358  17de		       08		      php
   5359  17df		       f8		      sed
unittest.asm (5360): error: Syntax Error '#hi dec_rti_ret'.
   5360  17e0		       a9 00		      lda	#hi dec_rti_ret	;emulated interrupt for rti
   5361  17e2		       48		      pha
unittest.asm (5362): error: Syntax Error '#lo dec_rti_ret'.
   5362  17e3		       a9 00		      lda	#lo dec_rti_ret
   5363  17e5		       48		      pha
   5364  17e6		       08		      php
   5365  17e7		       d8		      cld
   5366  17e8		       40		      rti
   5367  17e9				   dec_rti_ret
   5368  17e9		       a9 55		      lda	#$55
   5369  17eb		       69 55		      adc	#$55
   5370  17ed		       c9 10		      cmp	#$10
unittest.asm (5371): error: Unknown Mnemonic 'trap_ne'.
   5371  17ed					      trap_ne		;expected decimal result after rti D=1
   5372  17ef		       40		      rti
   5373  17f0				   bin_rti_ret
   5374  17f0		       a9 55		      lda	#$55
   5375  17f2		       69 55		      adc	#$55
   5376  17f4		       c9 aa		      cmp	#$aa
unittest.asm (5377): error: Unknown Mnemonic 'trap_ne'.
   5377  17f4					      trap_ne		;expected binary result after rti D=0
   5378  17f6					      endif
   5379  17f6
   5380  17f6		       ad 00 02 	      lda	test_case
   5381  17f9		       c9 00		      cmp	#test_num
unittest.asm (5382): error: Unknown Mnemonic 'trap_ne'.
   5382  17f9					      trap_ne		;previous test is out of sequence
   5383  17fb		       a9 f0		      lda	#$f0	;mark opcode testing complete
   5384  17fd		       8d 00 02 	      sta	test_case
   5385  1800
   5386  1800							; final RAM integrity test
   5387  1800							;   verifies that none of the previous tests has altered RAM outside of the
   5388  1800							;   designated write areas.
unittest.asm (5389): error: Unknown Mnemonic 'check_ram'.
   5389  1800					      check_ram
   5390  1800							; *** DEBUG INFO ***
   5391  1800							; to debug checksum errors uncomment check_ram in the next_test macro to
   5392  1800							; narrow down the responsible opcode.
   5393  1800							; may give false errors when monitor, OS or other background activity is
   5394  1800							; allowed during previous tests.
   5395  1800
   5396  1800
   5397  1800							; S U C C E S S ************************************************
   5398  1800							; -------------
unittest.asm (5399): error: Unknown Mnemonic 'success'.
   5399  1800					      success		;if you get here everything went well
   5400  1800							; -------------
   5401  1800							; S U C C E S S ************************************************
   5402  1800		       4c 00 04 	      jmp	start	;run again
   5403  1803
   5404  1803					      if	disable_decimal < 1
   5405  1803							; core subroutine of the decimal add/subtract test
   5406  1803							; *** WARNING - tests documented behavior only! ***
   5407  1803							;   only valid BCD operands are tested, N V Z flags are ignored
   5408  1803							; iterates through all valid combinations of operands and carry input
   5409  1803							; uses increments/decrements to predict result & carry flag
   5410  1803				   chkdad
   5411  1803							; decimal ADC / SBC zp
   5412  1803		       08		      php		;save carry for subtract
   5413  1804		       a5 43		      lda	ad1
   5414  1806		       65 44		      adc	ad2	;perform add
   5415  1808		       08		      php
   5416  1809		       c5 45		      cmp	adrl	;check result
unittest.asm (5417): error: Unknown Mnemonic 'trap_ne'.
   5417  1809					      trap_ne		;bad result
   5418  180b		       68		      pla		;check flags
   5419  180c		       29 01		      and	#1	;mask carry
   5420  180e		       c5 46		      cmp	adrh
unittest.asm (5421): error: Unknown Mnemonic 'trap_ne'.
   5421  180e					      trap_ne		;bad carry
   5422  1810		       28		      plp
   5423  1811		       08		      php		;save carry for next add
   5424  1812		       a5 43		      lda	ad1
   5425  1814		       e5 48		      sbc	sb2	;perform subtract
   5426  1816		       08		      php
   5427  1817		       c5 45		      cmp	adrl	;check result
unittest.asm (5428): error: Unknown Mnemonic 'trap_ne'.
   5428  1817					      trap_ne		;bad result
   5429  1819		       68		      pla		;check flags
   5430  181a		       29 01		      and	#1	;mask carry
   5431  181c		       c5 46		      cmp	adrh
unittest.asm (5432): error: Unknown Mnemonic 'trap_ne'.
   5432  181c					      trap_ne		;bad flags
   5433  181e		       28		      plp
   5434  181f							; decimal ADC / SBC abs
   5435  181f		       08		      php		;save carry for subtract
   5436  1820		       a5 43		      lda	ad1
   5437  1822		       6d 03 02 	      adc	ada2	;perform add
   5438  1825		       08		      php
   5439  1826		       c5 45		      cmp	adrl	;check result
unittest.asm (5440): error: Unknown Mnemonic 'trap_ne'.
   5440  1826					      trap_ne		;bad result
   5441  1828		       68		      pla		;check flags
   5442  1829		       29 01		      and	#1	;mask carry
   5443  182b		       c5 46		      cmp	adrh
unittest.asm (5444): error: Unknown Mnemonic 'trap_ne'.
   5444  182b					      trap_ne		;bad carry
   5445  182d		       28		      plp
   5446  182e		       08		      php		;save carry for next add
   5447  182f		       a5 43		      lda	ad1
   5448  1831		       ed 04 02 	      sbc	sba2	;perform subtract
   5449  1834		       08		      php
   5450  1835		       c5 45		      cmp	adrl	;check result
unittest.asm (5451): error: Unknown Mnemonic 'trap_ne'.
   5451  1835					      trap_ne		;bad result
   5452  1837		       68		      pla		;check flags
   5453  1838		       29 01		      and	#1	;mask carry
   5454  183a		       c5 46		      cmp	adrh
unittest.asm (5455): error: Unknown Mnemonic 'trap_ne'.
   5455  183a					      trap_ne		;bad carry
   5456  183c		       28		      plp
   5457  183d							; decimal ADC / SBC #
   5458  183d		       08		      php		;save carry for subtract
   5459  183e		       a5 44		      lda	ad2
   5460  1840		       8d 13 02 	      sta	ex_adci+1	;set ADC # operand
   5461  1843		       a5 43		      lda	ad1
   5462  1845		       20 12 02 	      jsr	ex_adci	;execute ADC # in RAM
   5463  1848		       08		      php
   5464  1849		       c5 45		      cmp	adrl	;check result
unittest.asm (5465): error: Unknown Mnemonic 'trap_ne'.
   5465  1849					      trap_ne		;bad result
   5466  184b		       68		      pla		;check flags
   5467  184c		       29 01		      and	#1	;mask carry
   5468  184e		       c5 46		      cmp	adrh
unittest.asm (5469): error: Unknown Mnemonic 'trap_ne'.
   5469  184e					      trap_ne		;bad carry
   5470  1850		       28		      plp
   5471  1851		       08		      php		;save carry for next add
   5472  1852		       a5 48		      lda	sb2
   5473  1854		       8d 16 02 	      sta	ex_sbci+1	;set SBC # operand
   5474  1857		       a5 43		      lda	ad1
   5475  1859		       20 15 02 	      jsr	ex_sbci	;execute SBC # in RAM
   5476  185c		       08		      php
   5477  185d		       c5 45		      cmp	adrl	;check result
unittest.asm (5478): error: Unknown Mnemonic 'trap_ne'.
   5478  185d					      trap_ne		;bad result
   5479  185f		       68		      pla		;check flags
   5480  1860		       29 01		      and	#1	;mask carry
   5481  1862		       c5 46		      cmp	adrh
unittest.asm (5482): error: Unknown Mnemonic 'trap_ne'.
   5482  1862					      trap_ne		;bad carry
   5483  1864		       28		      plp
   5484  1865							; decimal ADC / SBC zp,x
   5485  1865		       08		      php		;save carry for subtract
   5486  1866		       a5 43		      lda	ad1
   5487  1868		       75 00		      adc	0,x	;perform add
   5488  186a		       08		      php
   5489  186b		       c5 45		      cmp	adrl	;check result
unittest.asm (5490): error: Unknown Mnemonic 'trap_ne'.
   5490  186b					      trap_ne		;bad result
   5491  186d		       68		      pla		;check flags
   5492  186e		       29 01		      and	#1	;mask carry
   5493  1870		       c5 46		      cmp	adrh
unittest.asm (5494): error: Unknown Mnemonic 'trap_ne'.
   5494  1870					      trap_ne		;bad carry
   5495  1872		       28		      plp
   5496  1873		       08		      php		;save carry for next add
   5497  1874		       a5 43		      lda	ad1
   5498  1876		       f5 04		      sbc	sb2-ad2,x	;perform subtract
   5499  1878		       08		      php
   5500  1879		       c5 45		      cmp	adrl	;check result
unittest.asm (5501): error: Unknown Mnemonic 'trap_ne'.
   5501  1879					      trap_ne		;bad result
   5502  187b		       68		      pla		;check flags
   5503  187c		       29 01		      and	#1	;mask carry
   5504  187e		       c5 46		      cmp	adrh
unittest.asm (5505): error: Unknown Mnemonic 'trap_ne'.
   5505  187e					      trap_ne		;bad carry
   5506  1880		       28		      plp
   5507  1881							; decimal ADC / SBC abs,x
   5508  1881		       08		      php		;save carry for subtract
   5509  1882		       a5 43		      lda	ad1
   5510  1884		       7d bf 01 	      adc	ada2-ad2,x	;perform add
   5511  1887		       08		      php
   5512  1888		       c5 45		      cmp	adrl	;check result
unittest.asm (5513): error: Unknown Mnemonic 'trap_ne'.
   5513  1888					      trap_ne		;bad result
   5514  188a		       68		      pla		;check flags
   5515  188b		       29 01		      and	#1	;mask carry
   5516  188d		       c5 46		      cmp	adrh
unittest.asm (5517): error: Unknown Mnemonic 'trap_ne'.
   5517  188d					      trap_ne		;bad carry
   5518  188f		       28		      plp
   5519  1890		       08		      php		;save carry for next add
   5520  1891		       a5 43		      lda	ad1
   5521  1893		       fd c0 01 	      sbc	sba2-ad2,x	;perform subtract
   5522  1896		       08		      php
   5523  1897		       c5 45		      cmp	adrl	;check result
unittest.asm (5524): error: Unknown Mnemonic 'trap_ne'.
   5524  1897					      trap_ne		;bad result
   5525  1899		       68		      pla		;check flags
   5526  189a		       29 01		      and	#1	;mask carry
   5527  189c		       c5 46		      cmp	adrh
unittest.asm (5528): error: Unknown Mnemonic 'trap_ne'.
   5528  189c					      trap_ne		;bad carry
   5529  189e		       28		      plp
   5530  189f							; decimal ADC / SBC abs,y
   5531  189f		       08		      php		;save carry for subtract
   5532  18a0		       a5 43		      lda	ad1
   5533  18a2		       79 04 01 	      adc	ada2-$ff,y	;perform add
   5534  18a5		       08		      php
   5535  18a6		       c5 45		      cmp	adrl	;check result
unittest.asm (5536): error: Unknown Mnemonic 'trap_ne'.
   5536  18a6					      trap_ne		;bad result
   5537  18a8		       68		      pla		;check flags
   5538  18a9		       29 01		      and	#1	;mask carry
   5539  18ab		       c5 46		      cmp	adrh
unittest.asm (5540): error: Unknown Mnemonic 'trap_ne'.
   5540  18ab					      trap_ne		;bad carry
   5541  18ad		       28		      plp
   5542  18ae		       08		      php		;save carry for next add
   5543  18af		       a5 43		      lda	ad1
   5544  18b1		       f9 05 01 	      sbc	sba2-$ff,y	;perform subtract
   5545  18b4		       08		      php
   5546  18b5		       c5 45		      cmp	adrl	;check result
unittest.asm (5547): error: Unknown Mnemonic 'trap_ne'.
   5547  18b5					      trap_ne		;bad result
   5548  18b7		       68		      pla		;check flags
   5549  18b8		       29 01		      and	#1	;mask carry
   5550  18ba		       c5 46		      cmp	adrh
unittest.asm (5551): error: Unknown Mnemonic 'trap_ne'.
   5551  18ba					      trap_ne		;bad carry
   5552  18bc		       28		      plp
   5553  18bd							; decimal ADC / SBC (zp,x)
   5554  18bd		       08		      php		;save carry for subtract
   5555  18be		       a5 43		      lda	ad1
unittest.asm (5556): error: Syntax Error '(lo adi2-ad2,x)'.
   5556  18c0		       61 46		      adc	(lo adi2-ad2,x)	;perform add
   5557  18c2		       08		      php
   5558  18c3		       c5 45		      cmp	adrl	;check result
unittest.asm (5559): error: Unknown Mnemonic 'trap_ne'.
   5559  18c3					      trap_ne		;bad result
   5560  18c5		       68		      pla		;check flags
   5561  18c6		       29 01		      and	#1	;mask carry
   5562  18c8		       c5 46		      cmp	adrh
unittest.asm (5563): error: Unknown Mnemonic 'trap_ne'.
   5563  18c8					      trap_ne		;bad carry
   5564  18ca		       28		      plp
   5565  18cb		       08		      php		;save carry for next add
   5566  18cc		       a5 43		      lda	ad1
unittest.asm (5567): error: Syntax Error '(lo sbi2-ad2,x)'.
   5567  18ce		       e1 48		      sbc	(lo sbi2-ad2,x)	;perform subtract
   5568  18d0		       08		      php
   5569  18d1		       c5 45		      cmp	adrl	;check result
unittest.asm (5570): error: Unknown Mnemonic 'trap_ne'.
   5570  18d1					      trap_ne		;bad result
   5571  18d3		       68		      pla		;check flags
   5572  18d4		       29 01		      and	#1	;mask carry
   5573  18d6		       c5 46		      cmp	adrh
unittest.asm (5574): error: Unknown Mnemonic 'trap_ne'.
   5574  18d6					      trap_ne		;bad carry
   5575  18d8		       28		      plp
   5576  18d9							; decimal ADC / SBC (abs),y
   5577  18d9		       08		      php		;save carry for subtract
   5578  18da		       a5 43		      lda	ad1
   5579  18dc		       71 8e		      adc	(adiy2),y	;perform add
   5580  18de		       08		      php
   5581  18df		       c5 45		      cmp	adrl	;check result
unittest.asm (5582): error: Unknown Mnemonic 'trap_ne'.
   5582  18df					      trap_ne		;bad result
   5583  18e1		       68		      pla		;check flags
   5584  18e2		       29 01		      and	#1	;mask carry
   5585  18e4		       c5 46		      cmp	adrh
unittest.asm (5586): error: Unknown Mnemonic 'trap_ne'.
   5586  18e4					      trap_ne		;bad carry
   5587  18e6		       28		      plp
   5588  18e7		       08		      php		;save carry for next add
   5589  18e8		       a5 43		      lda	ad1
   5590  18ea		       f1 90		      sbc	(sbiy2),y	;perform subtract
   5591  18ec		       08		      php
   5592  18ed		       c5 45		      cmp	adrl	;check result
unittest.asm (5593): error: Unknown Mnemonic 'trap_ne'.
   5593  18ed					      trap_ne		;bad result
   5594  18ef		       68		      pla		;check flags
   5595  18f0		       29 01		      and	#1	;mask carry
   5596  18f2		       c5 46		      cmp	adrh
unittest.asm (5597): error: Unknown Mnemonic 'trap_ne'.
   5597  18f2					      trap_ne		;bad carry
   5598  18f4		       28		      plp
   5599  18f5		       60		      rts
   5600  18f6					      endif
   5601  18f6
   5602  18f6							; core subroutine of the full binary add/subtract test
   5603  18f6							; iterates through all combinations of operands and carry input
   5604  18f6							; uses increments/decrements to predict result & result flags
   5605  18f6		       a5 47	   chkadd     lda	adrf	;add V-flag if overflow
   5606  18f8		       29 83		      and	#$83	;keep N-----ZC / clear V
   5607  18fa		       48		      pha
   5608  18fb		       a5 43		      lda	ad1	;test sign unequal between operands
   5609  18fd		       45 44		      eor	ad2
   5610  18ff		       30 44		      bmi	ckad1	;no overflow possible - operands have different sign
   5611  1901		       a5 43		      lda	ad1	;test sign equal between operands and result
   5612  1903		       45 45		      eor	adrl
   5613  1905		       10 45		      bpl	ckad1	;no overflow occured - operand and result have same sign
   5614  1907		       68		      pla
   5615  1908		       09 40		      ora	#$40	;set V
   5616  190a		       48		      pha
   5617  190b		       68	   ckad1      pla
   5618  190c		       85 47		      sta	adrf	;save expected flags
   5619  190e							; binary ADC / SBC zp
   5620  190e		       08		      php		;save carry for subtract
   5621  190f		       a5 43		      lda	ad1
   5622  1911		       65 44		      adc	ad2	;perform add
   5623  1913		       08		      php
   5624  1914		       c5 45		      cmp	adrl	;check result
unittest.asm (5625): error: Unknown Mnemonic 'trap_ne'.
   5625  1914					      trap_ne		;bad result
   5626  1916		       68		      pla		;check flags
   5627  1917		       29 c3		      and	#$c3	;mask NV----ZC
   5628  1919		       c5 47		      cmp	adrf
unittest.asm (5629): error: Unknown Mnemonic 'trap_ne'.
   5629  1919					      trap_ne		;bad flags
   5630  191b		       28		      plp
   5631  191c		       08		      php		;save carry for next add
   5632  191d		       a5 43		      lda	ad1
   5633  191f		       e5 48		      sbc	sb2	;perform subtract
   5634  1921		       08		      php
   5635  1922		       c5 45		      cmp	adrl	;check result
unittest.asm (5636): error: Unknown Mnemonic 'trap_ne'.
   5636  1922					      trap_ne		;bad result
   5637  1924		       68		      pla		;check flags
   5638  1925		       29 c3		      and	#$c3	;mask NV----ZC
   5639  1927		       c5 47		      cmp	adrf
unittest.asm (5640): error: Unknown Mnemonic 'trap_ne'.
   5640  1927					      trap_ne		;bad flags
   5641  1929		       28		      plp
   5642  192a							; binary ADC / SBC abs
   5643  192a		       08		      php		;save carry for subtract
   5644  192b		       a5 43		      lda	ad1
   5645  192d		       6d 03 02 	      adc	ada2	;perform add
   5646  1930		       08		      php
   5647  1931		       c5 45		      cmp	adrl	;check result
unittest.asm (5648): error: Unknown Mnemonic 'trap_ne'.
   5648  1931					      trap_ne		;bad result
   5649  1933		       68		      pla		;check flags
   5650  1934		       29 c3		      and	#$c3	;mask NV----ZC
   5651  1936		       c5 47		      cmp	adrf
unittest.asm (5652): error: Unknown Mnemonic 'trap_ne'.
   5652  1936					      trap_ne		;bad flags
   5653  1938		       28		      plp
   5654  1939		       08		      php		;save carry for next add
   5655  193a		       a5 43		      lda	ad1
   5656  193c		       ed 04 02 	      sbc	sba2	;perform subtract
   5657  193f		       08		      php
   5658  1940		       c5 45		      cmp	adrl	;check result
unittest.asm (5659): error: Unknown Mnemonic 'trap_ne'.
   5659  1940					      trap_ne		;bad result
   5660  1942		       68		      pla		;check flags
   5661  1943		       29 c3		      and	#$c3	;mask NV----ZC
   5662  1945		       c5 47		      cmp	adrf
unittest.asm (5663): error: Unknown Mnemonic 'trap_ne'.
   5663  1945					      trap_ne		;bad flags
   5664  1947		       28		      plp
   5665  1948							; binary ADC / SBC #
   5666  1948		       08		      php		;save carry for subtract
   5667  1949		       a5 44		      lda	ad2
   5668  194b		       8d 13 02 	      sta	ex_adci+1	;set ADC # operand
   5669  194e		       a5 43		      lda	ad1
   5670  1950		       20 12 02 	      jsr	ex_adci	;execute ADC # in RAM
   5671  1953		       08		      php
   5672  1954		       c5 45		      cmp	adrl	;check result
unittest.asm (5673): error: Unknown Mnemonic 'trap_ne'.
   5673  1954					      trap_ne		;bad result
   5674  1956		       68		      pla		;check flags
   5675  1957		       29 c3		      and	#$c3	;mask NV----ZC
   5676  1959		       c5 47		      cmp	adrf
unittest.asm (5677): error: Unknown Mnemonic 'trap_ne'.
   5677  1959					      trap_ne		;bad flags
   5678  195b		       28		      plp
   5679  195c		       08		      php		;save carry for next add
   5680  195d		       a5 48		      lda	sb2
   5681  195f		       8d 16 02 	      sta	ex_sbci+1	;set SBC # operand
   5682  1962		       a5 43		      lda	ad1
   5683  1964		       20 15 02 	      jsr	ex_sbci	;execute SBC # in RAM
   5684  1967		       08		      php
   5685  1968		       c5 45		      cmp	adrl	;check result
unittest.asm (5686): error: Unknown Mnemonic 'trap_ne'.
   5686  1968					      trap_ne		;bad result
   5687  196a		       68		      pla		;check flags
   5688  196b		       29 c3		      and	#$c3	;mask NV----ZC
   5689  196d		       c5 47		      cmp	adrf
unittest.asm (5690): error: Unknown Mnemonic 'trap_ne'.
   5690  196d					      trap_ne		;bad flags
   5691  196f		       28		      plp
   5692  1970							; binary ADC / SBC zp,x
   5693  1970		       08		      php		;save carry for subtract
   5694  1971		       a5 43		      lda	ad1
   5695  1973		       75 00		      adc	0,x	;perform add
   5696  1975		       08		      php
   5697  1976		       c5 45		      cmp	adrl	;check result
unittest.asm (5698): error: Unknown Mnemonic 'trap_ne'.
   5698  1976					      trap_ne		;bad result
   5699  1978		       68		      pla		;check flags
   5700  1979		       29 c3		      and	#$c3	;mask NV----ZC
   5701  197b		       c5 47		      cmp	adrf
unittest.asm (5702): error: Unknown Mnemonic 'trap_ne'.
   5702  197b					      trap_ne		;bad flags
   5703  197d		       28		      plp
   5704  197e		       08		      php		;save carry for next add
   5705  197f		       a5 43		      lda	ad1
   5706  1981		       f5 04		      sbc	sb2-ad2,x	;perform subtract
   5707  1983		       08		      php
   5708  1984		       c5 45		      cmp	adrl	;check result
unittest.asm (5709): error: Unknown Mnemonic 'trap_ne'.
   5709  1984					      trap_ne		;bad result
   5710  1986		       68		      pla		;check flags
   5711  1987		       29 c3		      and	#$c3	;mask NV----ZC
   5712  1989		       c5 47		      cmp	adrf
unittest.asm (5713): error: Unknown Mnemonic 'trap_ne'.
   5713  1989					      trap_ne		;bad flags
   5714  198b		       28		      plp
   5715  198c							; binary ADC / SBC abs,x
   5716  198c		       08		      php		;save carry for subtract
   5717  198d		       a5 43		      lda	ad1
   5718  198f		       7d bf 01 	      adc	ada2-ad2,x	;perform add
   5719  1992		       08		      php
   5720  1993		       c5 45		      cmp	adrl	;check result
unittest.asm (5721): error: Unknown Mnemonic 'trap_ne'.
   5721  1993					      trap_ne		;bad result
   5722  1995		       68		      pla		;check flags
   5723  1996		       29 c3		      and	#$c3	;mask NV----ZC
   5724  1998		       c5 47		      cmp	adrf
unittest.asm (5725): error: Unknown Mnemonic 'trap_ne'.
   5725  1998					      trap_ne		;bad flags
   5726  199a		       28		      plp
   5727  199b		       08		      php		;save carry for next add
   5728  199c		       a5 43		      lda	ad1
   5729  199e		       fd c0 01 	      sbc	sba2-ad2,x	;perform subtract
   5730  19a1		       08		      php
   5731  19a2		       c5 45		      cmp	adrl	;check result
unittest.asm (5732): error: Unknown Mnemonic 'trap_ne'.
   5732  19a2					      trap_ne		;bad result
   5733  19a4		       68		      pla		;check flags
   5734  19a5		       29 c3		      and	#$c3	;mask NV----ZC
   5735  19a7		       c5 47		      cmp	adrf
unittest.asm (5736): error: Unknown Mnemonic 'trap_ne'.
   5736  19a7					      trap_ne		;bad flags
   5737  19a9		       28		      plp
   5738  19aa							; binary ADC / SBC abs,y
   5739  19aa		       08		      php		;save carry for subtract
   5740  19ab		       a5 43		      lda	ad1
   5741  19ad		       79 04 01 	      adc	ada2-$ff,y	;perform add
   5742  19b0		       08		      php
   5743  19b1		       c5 45		      cmp	adrl	;check result
unittest.asm (5744): error: Unknown Mnemonic 'trap_ne'.
   5744  19b1					      trap_ne		;bad result
   5745  19b3		       68		      pla		;check flags
   5746  19b4		       29 c3		      and	#$c3	;mask NV----ZC
   5747  19b6		       c5 47		      cmp	adrf
unittest.asm (5748): error: Unknown Mnemonic 'trap_ne'.
   5748  19b6					      trap_ne		;bad flags
   5749  19b8		       28		      plp
   5750  19b9		       08		      php		;save carry for next add
   5751  19ba		       a5 43		      lda	ad1
   5752  19bc		       f9 05 01 	      sbc	sba2-$ff,y	;perform subtract
   5753  19bf		       08		      php
   5754  19c0		       c5 45		      cmp	adrl	;check result
unittest.asm (5755): error: Unknown Mnemonic 'trap_ne'.
   5755  19c0					      trap_ne		;bad result
   5756  19c2		       68		      pla		;check flags
   5757  19c3		       29 c3		      and	#$c3	;mask NV----ZC
   5758  19c5		       c5 47		      cmp	adrf
unittest.asm (5759): error: Unknown Mnemonic 'trap_ne'.
   5759  19c5					      trap_ne		;bad flags
   5760  19c7		       28		      plp
   5761  19c8							; binary ADC / SBC (zp,x)
   5762  19c8		       08		      php		;save carry for subtract
   5763  19c9		       a5 43		      lda	ad1
unittest.asm (5764): error: Syntax Error '(lo adi2-ad2,x)'.
   5764  19cb		       61 46		      adc	(lo adi2-ad2,x)	;perform add
   5765  19cd		       08		      php
   5766  19ce		       c5 45		      cmp	adrl	;check result
unittest.asm (5767): error: Unknown Mnemonic 'trap_ne'.
   5767  19ce					      trap_ne		;bad result
   5768  19d0		       68		      pla		;check flags
   5769  19d1		       29 c3		      and	#$c3	;mask NV----ZC
   5770  19d3		       c5 47		      cmp	adrf
unittest.asm (5771): error: Unknown Mnemonic 'trap_ne'.
   5771  19d3					      trap_ne		;bad flags
   5772  19d5		       28		      plp
   5773  19d6		       08		      php		;save carry for next add
   5774  19d7		       a5 43		      lda	ad1
unittest.asm (5775): error: Syntax Error '(lo sbi2-ad2,x)'.
   5775  19d9		       e1 48		      sbc	(lo sbi2-ad2,x)	;perform subtract
   5776  19db		       08		      php
   5777  19dc		       c5 45		      cmp	adrl	;check result
unittest.asm (5778): error: Unknown Mnemonic 'trap_ne'.
   5778  19dc					      trap_ne		;bad result
   5779  19de		       68		      pla		;check flags
   5780  19df		       29 c3		      and	#$c3	;mask NV----ZC
   5781  19e1		       c5 47		      cmp	adrf
unittest.asm (5782): error: Unknown Mnemonic 'trap_ne'.
   5782  19e1					      trap_ne		;bad flags
   5783  19e3		       28		      plp
   5784  19e4							; binary ADC / SBC (abs),y
   5785  19e4		       08		      php		;save carry for subtract
   5786  19e5		       a5 43		      lda	ad1
   5787  19e7		       71 8e		      adc	(adiy2),y	;perform add
   5788  19e9		       08		      php
   5789  19ea		       c5 45		      cmp	adrl	;check result
unittest.asm (5790): error: Unknown Mnemonic 'trap_ne'.
   5790  19ea					      trap_ne		;bad result
   5791  19ec		       68		      pla		;check flags
   5792  19ed		       29 c3		      and	#$c3	;mask NV----ZC
   5793  19ef		       c5 47		      cmp	adrf
unittest.asm (5794): error: Unknown Mnemonic 'trap_ne'.
   5794  19ef					      trap_ne		;bad flags
   5795  19f1		       28		      plp
   5796  19f2		       08		      php		;save carry for next add
   5797  19f3		       a5 43		      lda	ad1
   5798  19f5		       f1 90		      sbc	(sbiy2),y	;perform subtract
   5799  19f7		       08		      php
   5800  19f8		       c5 45		      cmp	adrl	;check result
unittest.asm (5801): error: Unknown Mnemonic 'trap_ne'.
   5801  19f8					      trap_ne		;bad result
   5802  19fa		       68		      pla		;check flags
   5803  19fb		       29 c3		      and	#$c3	;mask NV----ZC
   5804  19fd		       c5 47		      cmp	adrf
unittest.asm (5805): error: Unknown Mnemonic 'trap_ne'.
   5805  19fd					      trap_ne		;bad flags
   5806  19ff		       28		      plp
   5807  1a00		       60		      rts
   5808  1a01
   5809  1a01							; target for the jump absolute test
   5810  1a01		       88		      dey
   5811  1a02		       88		      dey
   5812  1a03				   test_far
   5813  1a03		       08		      php		;either SP or Y count will fail, if we do not hit
   5814  1a04		       88		      dey
   5815  1a05		       88		      dey
   5816  1a06		       88		      dey
   5817  1a07		       28		      plp
unittest.asm (5818): error: Unknown Mnemonic 'trap_cs'.
   5818  1a0